	.cpu cortex-m4
	.eabi_attribute 27, 1
	.eabi_attribute 28, 1
	.eabi_attribute 20, 1
	.eabi_attribute 21, 1
	.eabi_attribute 23, 3
	.eabi_attribute 24, 1
	.eabi_attribute 25, 1
	.eabi_attribute 26, 1
	.eabi_attribute 30, 6
	.eabi_attribute 34, 1
	.eabi_attribute 18, 4
	.file	"instance.c"
	.text
.Ltext0:
	.section	.text.nrf_delay_us,"ax",%progbits
	.align	1
	.syntax unified
	.thumb
	.thumb_func
	.fpu fpv4-sp-d16
	.type	nrf_delay_us, %function
nrf_delay_us:
.LFB131:
	.file 1 "../../nRF5_SDK_14.2.0/components/drivers_nrf/delay/nrf_delay.h"
	.loc 1 168 1
	@ args = 0, pretend = 0, frame = 16
	@ frame_needed = 0, uses_anonymous_args = 0
	@ link register save eliminated.
	sub	sp, sp, #16
.LCFI0:
	str	r0, [sp, #4]
	.loc 1 169 20
	ldr	r3, .L4
	str	r3, [sp, #12]
	.loc 1 170 8
	ldr	r3, [sp, #4]
	cmp	r3, #0
	beq	.L3
	.loc 1 172 1
	ldr	r3, .L4+4
	ldr	r2, [r3]
	ldr	r1, [sp, #12]
	ldr	r3, [sp, #4]
	.syntax unified
@ 172 "../../nRF5_SDK_14.2.0/components/drivers_nrf/delay/nrf_delay.h" 1
	1:
 NOP
 NOP
 NOP
 NOP
 NOP
 NOP
 NOP
 NOP
 CMP r2, r1
 BEQ.N 2f
 NOP
 NOP
 NOP
 NOP
 NOP
 NOP
 NOP
 NOP
 NOP
 NOP
 NOP
 NOP
 NOP
 NOP
 NOP
 NOP
 NOP
 NOP
 NOP
 NOP
 NOP
 NOP
 NOP
 NOP
 NOP
 NOP
 NOP
 NOP
 NOP
 NOP
 NOP
 NOP
 NOP
 NOP
 NOP
 NOP
 NOP
 NOP
 NOP
 NOP
 NOP
 NOP
 NOP
 NOP
 NOP
 NOP
 NOP
 NOP
2:
 SUBS r3, r3, #1
 BNE.N 1b

@ 0 "" 2
	.thumb
	.syntax unified
	str	r3, [sp, #4]
.L3:
	.loc 1 256 1
	nop
	add	sp, sp, #16
.LCFI1:
	@ sp needed
	bx	lr
.L5:
	.align	2
.L4:
	.word	16000000
	.word	SystemCoreClock
.LFE131:
	.size	nrf_delay_us, .-nrf_delay_us
	.section	.text.nrf_delay_ms,"ax",%progbits
	.align	1
	.syntax unified
	.thumb
	.thumb_func
	.fpu fpv4-sp-d16
	.type	nrf_delay_ms, %function
nrf_delay_ms:
.LFB132:
	.loc 1 260 1
	@ args = 0, pretend = 0, frame = 8
	@ frame_needed = 0, uses_anonymous_args = 0
	push	{lr}
.LCFI2:
	sub	sp, sp, #12
.LCFI3:
	str	r0, [sp, #4]
	.loc 1 261 5
	ldr	r3, [sp, #4]
	mov	r2, #1000
	mul	r3, r2, r3
	mov	r0, r3
	bl	nrf_delay_us
	.loc 1 262 1
	nop
	add	sp, sp, #12
.LCFI4:
	@ sp needed
	ldr	pc, [sp], #4
.LFE132:
	.size	nrf_delay_ms, .-nrf_delay_ms
	.section	.rodata.spi,"a"
	.align	2
	.type	spi, %object
	.size	spi, 8
spi:
	.word	1073758208
	.byte	4
	.byte	0
	.byte	0
	.space	1
	.section	.bss.spi_xfer_done,"aw",%nobits
	.type	spi_xfer_done, %object
	.size	spi_xfer_done, 1
spi_xfer_done:
	.space	1
	.global	rfDelays
	.section	.rodata.rfDelays,"a"
	.align	2
	.type	rfDelays, %object
	.size	rfDelays, 4
rfDelays:
	.space	4
	.global	rfDelaysTREK
	.section	.rodata.rfDelaysTREK,"a"
	.align	2
	.type	rfDelaysTREK, %object
	.size	rfDelaysTREK, 4
rfDelaysTREK:
	.space	4
	.global	txSpectrumConfig
	.section	.rodata.txSpectrumConfig,"a"
	.align	2
	.type	txSpectrumConfig, %object
	.size	txSpectrumConfig, 96
txSpectrumConfig:
	.space	96
	.global	rfDelaysAntOrig
	.section	.rodata.rfDelaysAntOrig,"a"
	.align	2
	.type	rfDelaysAntOrig, %object
	.size	rfDelaysAntOrig, 32
rfDelaysAntOrig:
	.space	32
	.global	rfDelaysAntTaoglas
	.section	.rodata.rfDelaysAntTaoglas,"a"
	.align	2
	.type	rfDelaysAntTaoglas, %object
	.size	rfDelaysAntTaoglas, 32
rfDelaysAntTaoglas:
	.space	32
	.section	.text.instanceconfigframeheader16,"ax",%progbits
	.align	1
	.global	instanceconfigframeheader16
	.syntax unified
	.thumb
	.thumb_func
	.fpu fpv4-sp-d16
	.type	instanceconfigframeheader16, %function
instanceconfigframeheader16:
.LFB217:
	.file 2 "/media/erwin/Data/workspace/git/dwm1001-examples/App2_nrf/instance.c"
	.loc 2 57 1
	@ args = 0, pretend = 0, frame = 8
	@ frame_needed = 0, uses_anonymous_args = 0
	@ link register save eliminated.
	sub	sp, sp, #8
.LCFI5:
	str	r0, [sp, #4]
	.loc 2 59 30
	ldr	r3, [sp, #4]
	movs	r2, #65
	strb	r2, [r3, #124]
	.loc 2 62 27
	ldr	r3, [sp, #4]
	movs	r2, #136
	strb	r2, [r3, #125]
	.loc 2 64 30
	ldr	r3, [sp, #4]
	ldrh	r3, [r3, #264]
	.loc 2 64 23
	uxtb	r2, r3
	ldr	r3, [sp, #4]
	strb	r2, [r3, #127]
	.loc 2 65 29
	ldr	r3, [sp, #4]
	ldrh	r3, [r3, #264]
	.loc 2 65 23
	lsrs	r3, r3, #8
	uxth	r3, r3
	uxtb	r2, r3
	ldr	r3, [sp, #4]
	strb	r2, [r3, #128]
	.loc 2 67 24
	ldr	r3, [sp, #4]
	movs	r2, #0
	strb	r2, [r3, #126]
	.loc 2 68 1
	nop
	add	sp, sp, #8
.LCFI6:
	@ sp needed
	bx	lr
.LFE217:
	.size	instanceconfigframeheader16, .-instanceconfigframeheader16
	.section	.text.instancesenddlypacket,"ax",%progbits
	.align	1
	.global	instancesenddlypacket
	.syntax unified
	.thumb
	.thumb_func
	.fpu fpv4-sp-d16
	.type	instancesenddlypacket, %function
instancesenddlypacket:
.LFB218:
	.loc 2 71 1
	@ args = 0, pretend = 0, frame = 16
	@ frame_needed = 0, uses_anonymous_args = 0
	push	{lr}
.LCFI7:
	sub	sp, sp, #20
.LCFI8:
	str	r0, [sp, #4]
	str	r1, [sp]
	.loc 2 72 9
	movs	r3, #0
	str	r3, [sp, #12]
	.loc 2 74 5
	ldr	r3, [sp, #4]
	ldrh	r3, [r3, #260]
	movs	r2, #0
	movs	r1, #0
	mov	r0, r3
	bl	dwt_writetxfctrl
	.loc 2 75 7
	ldr	r3, [sp]
	cmp	r3, #1
	bne	.L9
	.loc 2 77 9
	ldr	r3, [sp, #4]
	ldr	r3, [r3, #116]
	mov	r0, r3
	bl	dwt_setdelayedtrxtime
.L9:
	.loc 2 81 37
	ldr	r3, [sp, #4]
	ldrb	r3, [r3, #360]	@ zero_extendqisi2
	sxtb	r2, r3
	.loc 2 81 31
	ldr	r3, [sp]
	sxtb	r3, r3
	orrs	r3, r3, r2
	sxtb	r3, r3
	.loc 2 81 9
	uxtb	r3, r3
	mov	r0, r3
	bl	dwt_starttx
	mov	r3, r0
	.loc 2 81 8
	cmp	r3, #0
	beq	.L10
	.loc 2 83 16
	movs	r3, #1
	str	r3, [sp, #12]
	.loc 2 84 13
	ldr	r3, [sp, #4]
	ldr	r3, [r3, #720]
	.loc 2 84 21
	adds	r2, r3, #1
	ldr	r3, [sp, #4]
	str	r2, [r3, #720]
	b	.L11
.L10:
	.loc 2 88 23
	bl	portGetTickCnt
	mov	r2, r0
	.loc 2 88 21
	ldr	r3, [sp, #4]
	str	r2, [r3, #1892]
	.loc 2 89 23
	ldr	r3, [sp, #4]
	movs	r2, #1
	strb	r2, [r3, #1891]
.L11:
	.loc 2 91 12
	ldr	r3, [sp, #12]
	.loc 2 92 1
	mov	r0, r3
	add	sp, sp, #20
.LCFI9:
	@ sp needed
	ldr	pc, [sp], #4
.LFE218:
	.size	instancesenddlypacket, .-instancesenddlypacket
	.section	.text.instance_calcranges,"ax",%progbits
	.align	1
	.global	instance_calcranges
	.syntax unified
	.thumb
	.thumb_func
	.fpu fpv4-sp-d16
	.type	instance_calcranges, %function
instance_calcranges:
.LFB219:
	.loc 2 96 1
	@ args = 4, pretend = 0, frame = 32
	@ frame_needed = 0, uses_anonymous_args = 0
	push	{lr}
.LCFI10:
	sub	sp, sp, #36
.LCFI11:
	str	r0, [sp, #12]
	str	r2, [sp, #4]
	str	r3, [sp]
	mov	r3, r1	@ movhi
	strh	r3, [sp, #10]	@ movhi
	.loc 2 98 6
	movs	r3, #0
	str	r3, [sp, #24]
	.loc 2 99 6
	movs	r3, #0
	str	r3, [sp, #20]
	.loc 2 101 7
	movs	r3, #0
	str	r3, [sp, #28]
	.loc 2 101 2
	b	.L14
.L19:
.LBB2:
	.loc 2 103 22
	ldr	r3, [sp, #28]
	lsls	r3, r3, #2
	ldr	r2, [sp, #12]
	add	r3, r3, r2
	.loc 2 103 10
	ldr	r3, [r3]
	str	r3, [sp, #16]
	.loc 2 104 5
	ldr	r3, [sp, #16]
	ldr	r2, .L21
	cmp	r3, r2
	beq	.L15
	.loc 2 106 15
	ldrb	r3, [sp, #40]	@ zero_extendqisi2
	mov	r2, r3
	ldr	r1, [sp, #16]
	ldr	r0, [sp, #28]
	bl	reportTOF
	str	r0, [sp, #20]
.L15:
	.loc 2 109 5
	ldr	r3, [sp, #20]
	cmp	r3, #1
	bne	.L16
	.loc 2 111 13
	ldr	r3, [sp, #4]
	str	r3, [sp, #24]
	b	.L17
.L16:
	.loc 2 116 10
	ldr	r3, [sp]
	ldrh	r3, [r3]
	sxth	r2, r3
	.loc 2 116 22
	movs	r1, #1
	ldr	r3, [sp, #28]
	lsl	r3, r1, r3
	.loc 2 116 10
	sxth	r3, r3
	mvns	r3, r3
	sxth	r3, r3
	ands	r3, r3, r2
	sxth	r3, r3
	uxth	r2, r3
	ldr	r3, [sp]
	strh	r2, [r3]	@ movhi
	.loc 2 117 6
	ldrb	r3, [sp, #40]	@ zero_extendqisi2
	cmp	r3, #0
	beq	.L18
	.loc 2 118 5
	ldr	r0, [sp, #28]
	bl	clearDistTableImRpt
	b	.L17
.L18:
	.loc 2 120 5
	ldr	r0, [sp, #28]
	bl	clearDistTable
.L17:
	.loc 2 122 8 discriminator 2
	ldr	r3, [sp, #28]
	lsls	r3, r3, #2
	ldr	r2, [sp, #12]
	add	r3, r3, r2
	.loc 2 122 12 discriminator 2
	ldr	r2, .L21
	str	r2, [r3]
	.loc 2 124 12 discriminator 2
	movs	r3, #0
	str	r3, [sp, #20]
.LBE2:
	.loc 2 101 20 discriminator 2
	ldr	r3, [sp, #28]
	adds	r3, r3, #1
	str	r3, [sp, #28]
.L14:
	.loc 2 101 12 discriminator 1
	ldrh	r3, [sp, #10]
	.loc 2 101 2 discriminator 1
	ldr	r2, [sp, #28]
	cmp	r2, r3
	blt	.L19
	.loc 2 127 9
	ldr	r3, [sp, #24]
	.loc 2 128 1
	mov	r0, r3
	add	sp, sp, #36
.LCFI12:
	@ sp needed
	ldr	pc, [sp], #4
.L22:
	.align	2
.L21:
	.word	-1412562945
.LFE219:
	.size	instance_calcranges, .-instance_calcranges
	.global	__aeabi_l2d
	.global	__aeabi_dmul
	.global	__aeabi_dsub
	.global	__aeabi_dadd
	.global	__aeabi_ddiv
	.global	__aeabi_d2iz
	.section .rodata
	.align	2
.LC0:
	.ascii	"\000\000\000\000\000\000\000\000"
	.section	.text.testapprun_TWR,"ax",%progbits
	.align	1
	.global	testapprun_TWR
	.syntax unified
	.thumb
	.thumb_func
	.fpu fpv4-sp-d16
	.type	testapprun_TWR, %function
testapprun_TWR:
.LFB220:
	.loc 2 137 1
	@ args = 0, pretend = 0, frame = 288
	@ frame_needed = 0, uses_anonymous_args = 0
	push	{r4, r5, r6, r7, r8, r9, r10, fp, lr}
.LCFI13:
	sub	sp, sp, #300
.LCFI14:
	str	r0, [sp, #116]
	str	r1, [sp, #112]
	.loc 2 139 17
	ldr	r3, [sp, #116]
	ldrb	r3, [r3, #2]	@ zero_extendqisi2
	cmp	r3, #8
	bhi	.L110
	adr	r2, .L26
	ldr	pc, [r2, r3, lsl #2]
	.p2align 2
.L26:
	.word	.L33+1
	.word	.L32+1
	.word	.L31+1
	.word	.L30+1
	.word	.L110+1
	.word	.L29+1
	.word	.L28+1
	.word	.L27+1
	.word	.L25+1
	.p2align 1
.L33:
	.loc 2 143 21
	ldr	r3, [sp, #116]
	add	r0, r3, #252
	.loc 2 143 30
	ldr	r3, [sp, #116]
	adds	r3, r3, #46
	.loc 2 143 10
	movs	r2, #2
	mov	r1, r3
	bl	memcpy
	.loc 2 144 25
	ldr	r3, [sp, #116]
	adds	r3, r3, #252
	.loc 2 144 10
	mov	r0, r3
	bl	dwt_seteui
	.loc 2 146 10
	ldr	r3, [sp, #116]
	ldrh	r3, [r3, #264]
	mov	r0, r3
	bl	dwt_setpanid
	.loc 2 148 36
	ldr	r3, [sp, #116]
	ldrh	r3, [r3, #46]
	.loc 2 148 29
	uxtb	r2, r3
	ldr	r3, [sp, #116]
	strb	r2, [r3, #251]
	.loc 2 149 10
	ldr	r3, [sp, #116]
	ldrh	r3, [r3, #46]
	mov	r0, r3
	bl	dwt_setaddress16
	.loc 2 151 10
	movs	r0, #0
	bl	dwt_enableframefilter
	.loc 2 156 25
	ldr	r3, [sp, #116]
	ldrb	r3, [r3, #1]	@ zero_extendqisi2
	cmp	r3, #2
	beq	.L34
	cmp	r3, #2
	bgt	.L111
	cmp	r3, #0
	beq	.L36
	cmp	r3, #1
	bne	.L111
.LBB3:
	.loc 2 200 25
	movs	r3, #0
	strh	r3, [sp, #166]	@ movhi
	.loc 2 209 52
	ldr	r3, [sp, #116]
	ldrh	r3, [r3, #46]
	mov	r2, r3
	.loc 2 209 46
	ldr	r3, [sp, #116]
	str	r2, [r3, #744]
	.loc 2 213 37
	ldr	r3, [sp, #116]
	movs	r2, #2
	strb	r2, [r3, #3]
	.loc 2 214 40
	ldr	r3, [sp, #116]
	movs	r2, #1
	strb	r2, [r3, #2]
	.loc 2 215 41
	ldr	r3, [sp, #116]
	movs	r2, #0
	strb	r2, [r3, #4]
	.loc 2 216 39
	ldr	r3, [sp, #116]
	movs	r2, #1
	strb	r2, [r3, #364]
	.loc 2 218 36
	ldr	r3, [sp, #116]
	movs	r2, #0
	strb	r2, [r3, #400]
	.loc 2 219 46
	ldr	r3, [sp, #116]
	movs	r2, #0
	str	r2, [r3, #448]
	.loc 2 221 32
	movw	r3, #321
	strh	r3, [sp, #166]	@ movhi
	.loc 2 226 25
	ldr	r3, [sp, #116]
	ldrb	r3, [r3, #14]	@ zero_extendqisi2
	.loc 2 226 8
	cmp	r3, #4
	bne	.L37
	.loc 2 227 18
	ldrh	r3, [sp, #166]	@ movhi
	orr	r3, r3, #128
	strh	r3, [sp, #166]	@ movhi
.L37:
	.loc 2 232 9
	ldr	r0, [sp, #116]
	bl	instanceconfigframeheader16
	.loc 2 234 34
	bl	portGetTickCnt
	mov	r2, r0
	.loc 2 234 32
	ldr	r3, [sp, #116]
	str	r2, [r3, #368]
	.loc 2 235 37
	ldr	r3, [sp, #116]
	ldr	r2, [r3, #368]
	.loc 2 235 31
	ldr	r3, [sp, #116]
	str	r2, [r3, #380]
.LBE3:
	.loc 2 237 17
	b	.L38
.L34:
	.loc 2 259 6
	movs	r0, #0
	bl	dwt_setrxaftertxdelay
	.loc 2 261 40
	ldr	r3, [sp, #116]
	movs	r2, #6
	strb	r2, [r3, #2]
	.loc 2 263 21
	movs	r0, #0
	bl	dwt_setrxtimeout
	.loc 2 264 21
	movs	r0, #0
	bl	dwt_setpreambledetecttimeout
	.loc 2 265 21
	ldr	r0, [sp, #116]
	bl	instanceconfigframeheader16
	.loc 2 267 46
	bl	portGetTickCnt
	mov	r2, r0
	.loc 2 267 44
	ldr	r3, [sp, #116]
	str	r2, [r3, #368]
	.loc 2 268 49
	ldr	r3, [sp, #116]
	ldr	r2, [r3, #368]
	.loc 2 268 43
	ldr	r3, [sp, #116]
	str	r2, [r3, #380]
	.loc 2 270 17
	b	.L38
.L36:
	.loc 2 273 21
	movs	r0, #0
	bl	dwt_enableframefilter
	.loc 2 274 6
	movs	r0, #0
	bl	dwt_setrxaftertxdelay
	.loc 2 275 21
	movs	r0, #0
	bl	dwt_setrxtimeout
	.loc 2 276 21
	movs	r0, #0
	bl	dwt_setpreambledetecttimeout
	.loc 2 278 40
	ldr	r3, [sp, #116]
	movs	r2, #6
	strb	r2, [r3, #2]
	.loc 2 280 17
	b	.L38
.L111:
	.loc 2 282 17
	nop
.L38:
	.loc 2 284 13
	b	.L39
.L25:
.LBB4:
	.loc 2 288 35
	movs	r0, #10
	bl	instance_getevent
	str	r0, [sp, #268]
	.loc 2 290 16
	ldr	r3, [sp, #268]
	ldrb	r3, [r3]	@ zero_extendqisi2
	.loc 2 290 7
	cmp	r3, #4
	beq	.L40
	.loc 2 290 52 discriminator 1
	ldr	r3, [sp, #116]
	ldrb	r3, [r3, #4]	@ zero_extendqisi2
	.loc 2 290 45 discriminator 1
	cmp	r3, #0
	beq	.L40
	.loc 2 293 28
	ldr	r3, [sp, #116]
	movs	r2, #1
	str	r2, [r3, #8]
	.loc 2 294 17
	b	.L39
.L40:
	.loc 2 297 24
	ldr	r3, [sp, #116]
	movs	r2, #0
	str	r2, [r3, #8]
	.loc 2 298 31
	ldr	r3, [sp, #116]
	movs	r2, #0
	strb	r2, [r3, #364]
	.loc 2 299 38
	ldr	r3, [sp, #116]
	ldrb	r2, [r3, #3]	@ zero_extendqisi2
	.loc 2 299 32
	ldr	r3, [sp, #116]
	strb	r2, [r3, #2]
	.loc 2 307 39
	bl	portGetTickCnt
	mov	r2, r0
	.loc 2 307 37
	ldr	r3, [sp, #116]
	str	r2, [r3, #368]
	.loc 2 308 42
	ldr	r3, [sp, #116]
	ldr	r2, [r3, #368]
	.loc 2 308 36
	ldr	r3, [sp, #116]
	str	r2, [r3, #380]
	.loc 2 358 13
	movs	r0, #3
	bl	nrf_delay_ms
	.loc 2 363 13
	bl	instancesettxpower
.LBE4:
	.loc 2 366 13
	b	.L39
.L32:
	.loc 2 371 18
	ldr	r3, [sp, #116]
	ldrb	r3, [r3, #3]	@ zero_extendqisi2
	.loc 2 371 12
	cmp	r3, #2
	bne	.L41
	.loc 2 372 29
	ldr	r3, [sp, #116]
	ldrb	r3, [r3, #364]	@ zero_extendqisi2
	.loc 2 372 21
	cmp	r3, #0
	beq	.L41
	.loc 2 376 16
	ldr	r3, [sp, #116]
	ldrb	r3, [r3, #400]	@ zero_extendqisi2
	.loc 2 376 26
	adds	r3, r3, #1
	uxtb	r2, r3
	ldr	r3, [sp, #116]
	strb	r2, [r3, #400]
	.loc 2 379 28
	ldr	r3, [sp, #116]
	movs	r2, #2
	str	r2, [r3, #8]
	.loc 2 380 36
	ldr	r3, [sp, #116]
	movs	r2, #8
	strb	r2, [r3, #2]
.LBB5:
	.loc 2 389 12
	movs	r3, #0
	strb	r3, [sp, #295]
	.loc 2 390 13
	ldr	r3, [sp, #116]
	ldrh	r3, [r3, #392]
	.loc 2 390 8
	cmp	r3, #0
	beq	.L42
	.loc 2 393 12
	movs	r3, #0
	strb	r3, [sp, #295]
	.loc 2 393 7
	b	.L43
.L45:
	.loc 2 394 17
	ldr	r3, [sp, #116]
	ldrh	r3, [r3, #392]
	mov	r1, r3
	.loc 2 394 44
	ldrb	r3, [sp, #295]	@ zero_extendqisi2
	mov	r2, #32768
	asr	r3, r2, r3
	.loc 2 394 34
	ands	r3, r3, r1
	.loc 2 394 10
	cmp	r3, #0
	ble	.L44
	.loc 2 395 50
	ldrb	r3, [sp, #295]	@ zero_extendqisi2
	uxth	r3, r3
	rsb	r3, r3, #15
	uxth	r3, r3
	sxth	r3, r3
	.loc 2 395 45
	mvn	r3, r3, lsl #17
	mvn	r3, r3, lsr #17
	sxth	r3, r3
	uxth	r2, r3
	.loc 2 395 36
	ldr	r3, [sp, #116]
	strh	r2, [r3, #758]	@ movhi
.L44:
	.loc 2 393 21 discriminator 2
	ldrb	r3, [sp, #295]	@ zero_extendqisi2
	adds	r3, r3, #1
	strb	r3, [sp, #295]
.L43:
	.loc 2 393 7 discriminator 1
	ldrb	r3, [sp, #295]	@ zero_extendqisi2
	cmp	r3, #15
	bls	.L45
	b	.L46
.L42:
	.loc 2 398 34
	ldr	r3, [sp, #116]
	mov	r2, #32768
	strh	r2, [r3, #758]	@ movhi
.L46:
	.loc 2 402 23
	ldr	r3, [sp, #116]
	add	r0, r3, #520
	ldr	r3, [sp, #116]
	ldrh	r1, [r3, #1902]
	ldr	r3, [sp, #116]
	add	r3, r3, #392
	movs	r2, #0
	str	r2, [sp]
	movs	r2, #1
	bl	instance_calcranges
	mov	r2, r0
	.loc 2 402 21
	ldr	r3, [sp, #116]
	str	r2, [r3, #732]
	.loc 2 403 39
	ldr	r3, [sp, #116]
	ldrh	r2, [r3, #392]
	.loc 2 403 33
	ldr	r3, [sp, #116]
	strh	r2, [r3, #396]	@ movhi
	.loc 2 423 27
	ldr	r3, [sp, #116]
	movs	r2, #0
	strh	r2, [r3, #392]	@ movhi
	.loc 2 424 27
	bl	portGetTickCnt
	mov	r3, r0
	mov	r2, r3
	.loc 2 424 25
	ldr	r3, [sp, #116]
	str	r2, [r3, #748]
.LBE5:
	.loc 2 382 17
	nop
	.loc 2 433 13
	b	.L39
.L41:
	.loc 2 430 42
	ldr	r3, [sp, #116]
	ldrb	r2, [r3, #3]	@ zero_extendqisi2
	.loc 2 430 36
	ldr	r3, [sp, #116]
	strb	r2, [r3, #2]
	.loc 2 433 13
	b	.L39
.L31:
	.loc 2 439 55
	ldr	r3, [sp, #116]
	ldrb	r2, [r3, #400]	@ zero_extendqisi2
	.loc 2 439 49
	ldr	r3, [sp, #116]
	strb	r2, [r3, #134]
	.loc 2 440 45
	ldr	r3, [sp, #116]
	movs	r2, #129
	strb	r2, [r3, #133]
	.loc 2 444 58
	ldr	r3, [sp, #116]
	ldrh	r3, [r3, #758]
	.loc 2 444 52
	uxtb	r2, r3
	ldr	r3, [sp, #116]
	strb	r2, [r3, #135]
	.loc 2 453 31
	ldr	r3, [sp, #116]
	movs	r2, #14
	strh	r2, [r3, #260]	@ movhi
	.loc 2 454 42
	ldr	r3, [sp, #116]
	ldrb	r3, [r3, #262]	@ zero_extendqisi2
	.loc 2 454 51
	adds	r2, r3, #1
	uxtb	r1, r2
	ldr	r2, [sp, #116]
	strb	r1, [r2, #262]
	.loc 2 454 36
	ldr	r2, [sp, #116]
	strb	r3, [r2, #126]
	.loc 2 455 56
	ldr	r3, [sp, #116]
	ldrb	r2, [r3, #252]	@ zero_extendqisi2
	.loc 2 455 43
	ldr	r3, [sp, #116]
	strb	r2, [r3, #131]
	.loc 2 456 56
	ldr	r3, [sp, #116]
	ldrb	r2, [r3, #253]	@ zero_extendqisi2
	.loc 2 456 43
	ldr	r3, [sp, #116]
	strb	r2, [r3, #132]
	.loc 2 457 38
	ldr	r3, [sp, #116]
	movs	r2, #255
	strb	r2, [r3, #129]
	.loc 2 458 38
	ldr	r3, [sp, #116]
	movs	r2, #255
	strb	r2, [r3, #130]
	.loc 2 459 17
	ldr	r3, [sp, #116]
	ldrh	r0, [r3, #260]
	.loc 2 459 62
	ldr	r3, [sp, #116]
	adds	r3, r3, #124
	.loc 2 459 17
	movs	r2, #0
	mov	r1, r3
	bl	dwt_writetxdata
	.loc 2 462 5
	movs	r0, #200
	bl	dwt_setrxaftertxdelay
	.loc 2 468 12
	ldr	r3, [sp, #116]
	ldrb	r3, [r3, #1]	@ zero_extendqisi2
	.loc 2 468 7
	cmp	r3, #1
	bne	.L48
	.loc 2 470 24
	ldr	r3, [sp, #116]
	ldrb	r3, [r3, #400]	@ zero_extendqisi2
	mov	r2, r3
	.loc 2 470 36
	ldr	r3, [sp, #116]
	add	r3, r3, r2
	movs	r2, #0
	strb	r2, [r3, #1905]
	.loc 2 472 29
	ldr	r3, [sp, #116]
	ldrh	r3, [r3, #1902]
	sxth	r2, r3
	.loc 2 472 23
	ldr	r3, [sp, #116]
	strh	r2, [r3, #362]	@ movhi
	.loc 2 477 35
	ldr	r3, [sp, #116]
	ldr	r3, [r3, #108]
	.loc 2 477 6
	uxth	r2, r3
	.loc 2 477 56
	ldr	r3, [sp, #116]
	ldrh	r3, [r3, #1902]
	.loc 2 477 6
	adds	r3, r3, #1
	uxth	r3, r3
	smulbb	r3, r2, r3
	uxth	r3, r3
	mov	r0, r3
	bl	dwt_setrxtimeout
.L48:
	.loc 2 488 26
	ldr	r3, [sp, #116]
	movs	r2, #0
	strh	r2, [r3, #392]	@ movhi
	.loc 2 489 29
	ldr	r3, [sp, #116]
	movs	r2, #0
	strh	r2, [r3, #390]	@ movhi
	.loc 2 491 20
	ldr	r3, [sp, #116]
	movs	r2, #2
	strb	r2, [r3, #360]
	.loc 2 493 5
	ldr	r3, [sp, #116]
	ldrh	r3, [r3, #260]
	movs	r2, #0
	movs	r1, #0
	mov	r0, r3
	bl	dwt_writetxfctrl
	.loc 2 495 5
	movs	r0, #2
	bl	dwt_starttx
	.loc 2 497 36
	ldr	r3, [sp, #116]
	movs	r2, #5
	strb	r2, [r3, #2]
	.loc 2 498 37
	ldr	r3, [sp, #116]
	movs	r2, #2
	strb	r2, [r3, #4]
	.loc 2 499 28
	ldr	r3, [sp, #116]
	movs	r2, #1
	str	r2, [r3, #8]
	.loc 2 502 13
	b	.L39
.L30:
	.loc 2 508 58
	ldr	r3, [sp, #116]
	ldrb	r2, [r3, #400]	@ zero_extendqisi2
	.loc 2 508 52
	ldr	r3, [sp, #116]
	strb	r2, [r3, #134]
	.loc 2 517 45
	ldr	r3, [sp, #116]
	movs	r2, #130
	strb	r2, [r3, #133]
	.loc 2 521 41
	ldr	r3, [sp, #116]
	ldrh	r3, [r3, #1898]
	.loc 2 521 85
	adds	r3, r3, #11
	uxth	r2, r3
	.loc 2 521 34
	ldr	r3, [sp, #116]
	strh	r2, [r3, #260]	@ movhi
	.loc 2 522 42
	ldr	r3, [sp, #116]
	ldrb	r3, [r3, #262]	@ zero_extendqisi2
	.loc 2 522 51
	adds	r2, r3, #1
	uxtb	r1, r2
	ldr	r2, [sp, #116]
	strb	r1, [r2, #262]
	.loc 2 522 36
	ldr	r2, [sp, #116]
	strb	r3, [r2, #126]
	.loc 2 523 5
	ldr	r3, [sp, #116]
	ldrh	r0, [r3, #260]
	.loc 2 523 50
	ldr	r3, [sp, #116]
	adds	r3, r3, #124
	.loc 2 523 5
	movs	r2, #0
	mov	r1, r3
	bl	dwt_writetxdata
	.loc 2 532 21
	ldr	r3, [sp, #116]
	movs	r2, #0
	strb	r2, [r3, #360]
	.loc 2 538 9
	movs	r1, #1
	ldr	r0, [sp, #116]
	bl	instancesenddlypacket
	mov	r3, r0
	.loc 2 538 8
	cmp	r3, #0
	beq	.L49
	.loc 2 541 14
	ldr	r3, [sp, #116]
	ldrb	r3, [r3, #1]	@ zero_extendqisi2
	.loc 2 541 9
	cmp	r3, #1
	bne	.L50
	.loc 2 543 27
	ldr	r3, [sp, #116]
	movs	r2, #1
	strb	r2, [r3, #2]
	.loc 2 544 24
	ldr	r3, [sp, #116]
	movs	r2, #2
	strb	r2, [r3, #3]
	.loc 2 553 7
	b	.L39
.L50:
	.loc 2 551 8
	ldr	r0, [sp, #116]
	bl	instance_backtoanchor
	.loc 2 553 7
	b	.L39
.L49:
	.loc 2 558 26
	ldr	r3, [sp, #116]
	movs	r2, #5
	strb	r2, [r3, #2]
	.loc 2 559 27
	ldr	r3, [sp, #116]
	movs	r2, #3
	strb	r2, [r3, #4]
	.loc 2 562 13
	ldr	r3, [sp, #116]
	ldrb	r3, [r3, #1]	@ zero_extendqisi2
	.loc 2 562 8
	cmp	r3, #1
	bne	.L52
	.loc 2 564 25
	ldr	r3, [sp, #116]
	movs	r2, #1
	strb	r2, [r3, #364]
.L52:
	.loc 2 566 17
	ldr	r3, [sp, #116]
	movs	r2, #1
	str	r2, [r3, #8]
	.loc 2 624 13
	b	.L39
.L29:
.LBB6:
	.loc 2 679 30
	movs	r0, #11
	bl	instance_getevent
	str	r0, [sp, #168]
	.loc 2 684 16
	ldr	r3, [sp, #168]
	ldrb	r3, [r3]	@ zero_extendqisi2
	.loc 2 684 7
	cmp	r3, #1
	beq	.L53
	.loc 2 686 17
	ldr	r3, [sp, #168]
	ldrb	r3, [r3]	@ zero_extendqisi2
	.loc 2 686 8
	cmp	r3, #0
	beq	.L54
	.loc 2 688 18
	ldr	r3, [sp, #168]
	ldrb	r3, [r3]	@ zero_extendqisi2
	.loc 2 688 9
	cmp	r3, #4
	bne	.L55
	.loc 2 692 20
	ldr	r3, [sp, #116]
	movs	r2, #1
	strb	r2, [r3, #388]
	b	.L54
.L55:
	.loc 2 696 19
	ldr	r3, [sp, #116]
	movs	r2, #1
	str	r2, [r3, #8]
.L54:
	.loc 2 700 32
	ldr	r3, [sp, #116]
	movs	r2, #1
	str	r2, [r3, #8]
	.loc 2 701 25
	b	.L39
.L53:
	.loc 2 705 28
	ldr	r3, [sp, #116]
	movs	r2, #0
	str	r2, [r3, #8]
	.loc 2 707 24
	ldr	r3, [sp, #116]
	ldrb	r3, [r3, #4]	@ zero_extendqisi2
	.loc 2 707 19
	cmp	r3, #3
	bne	.L56
	.loc 2 709 28
	ldr	r3, [sp, #116]
	ldrb	r3, [r3, #1]	@ zero_extendqisi2
	.loc 2 709 23
	cmp	r3, #1
	bne	.L57
	.loc 2 719 42
	ldr	r3, [sp, #116]
	movs	r2, #1
	strb	r2, [r3, #2]
	.loc 2 720 39
	ldr	r3, [sp, #116]
	movs	r2, #2
	strb	r2, [r3, #3]
	.loc 2 721 23
	b	.L39
.L57:
	.loc 2 726 22
	ldr	r0, [sp, #116]
	bl	instance_backtoanchor
.LBE6:
	.loc 2 791 13
	b	.L39
.L56:
.LBB7:
	.loc 2 729 30
	ldr	r3, [sp, #116]
	ldrb	r3, [r3, #388]	@ zero_extendqisi2
	.loc 2 729 25
	cmp	r3, #1
	bne	.L59
	.loc 2 732 21
	ldr	r0, [sp, #116]
	bl	inst_processrxtimeout
	.loc 2 733 33
	ldr	r3, [sp, #116]
	movs	r2, #0
	strb	r2, [r3, #388]
	.loc 2 734 21
	ldr	r3, [sp, #116]
	movs	r2, #0
	strb	r2, [r3, #360]
	.loc 2 735 6
	b	.L39
.L59:
	.loc 2 742 13
	ldr	r3, [sp, #116]
	ldrb	r3, [r3, #4]	@ zero_extendqisi2
	.loc 2 742 8
	cmp	r3, #2
	bne	.L60
	.loc 2 747 26
	ldr	r3, [sp, #116]
	ldrb	r3, [r3, #1]	@ zero_extendqisi2
	.loc 2 747 21
	cmp	r3, #1
	bne	.L61
	.loc 2 749 64
	ldr	r3, [sp, #116]
	ldrd	r0, [r3, #336]
	.loc 2 749 83
	ldr	r3, [sp, #116]
	ldrd	r2, [r3, #72]
	.loc 2 749 77
	adds	r6, r0, r2
	adc	r7, r1, r3
	.loc 2 749 106
	ldr	r2, .L116
	mov	r3, #255
	and	r1, r6, r2
	str	r1, [sp, #8]
	ands	r3, r3, r7
	str	r3, [sp, #12]
	.loc 2 749 51
	ldr	r3, [sp, #116]
	ldrd	r1, [sp, #8]
	strd	r1, [r3, #352]
	b	.L62
.L61:
	.loc 2 753 64
	ldr	r3, [sp, #116]
	ldrd	r0, [r3, #336]
	.loc 2 753 83
	ldr	r3, [sp, #116]
	ldrd	r2, [r3, #80]
	.loc 2 753 77
	adds	r4, r0, r2
	adc	r5, r1, r3
	.loc 2 753 109
	ldr	r2, .L116
	mov	r3, #255
	and	r1, r4, r2
	str	r1, [sp, #16]
	ands	r3, r3, r5
	str	r3, [sp, #20]
	.loc 2 753 51
	ldr	r3, [sp, #116]
	ldrd	r1, [sp, #16]
	strd	r1, [r3, #352]
.L62:
	.loc 2 755 48
	ldr	r3, [sp, #116]
	ldrd	r0, [r3, #352]
	.loc 2 755 75
	mov	r2, #0
	mov	r3, #0
	lsrs	r2, r0, #8
	orr	r2, r2, r1, lsl #24
	lsrs	r3, r1, #8
	.loc 2 755 42
	ldr	r3, [sp, #116]
	str	r2, [r3, #116]
	.loc 2 760 56
	ldr	r3, [sp, #116]
	ldrd	r0, [r3, #352]
	.loc 2 760 89
	ldr	r3, [sp, #116]
	ldrh	r3, [r3, #34]
	uxth	r2, r3
	mov	r3, #0
	.loc 2 760 83
	adds	r10, r0, r2
	adc	fp, r1, r3
	.loc 2 760 50
	ldr	r3, [sp, #116]
	strd	r10, [r3, #352]
	.loc 2 761 50
	ldr	r3, [sp, #116]
	ldrd	r2, [r3, #352]
	mov	r0, #-1
	mov	r1, #255
	and	r8, r2, r0
	and	r9, r3, r1
	ldr	r3, [sp, #116]
	strd	r8, [r3, #352]
	.loc 2 765 44
	ldr	r3, [sp, #116]
	ldrb	r3, [r3, #1896]	@ zero_extendqisi2
	.loc 2 765 14
	adds	r3, r3, #128
	ldr	r2, [sp, #116]
	add	r3, r3, r2
	adds	r0, r3, #5
	.loc 2 765 73
	ldr	r3, [sp, #116]
	add	r3, r3, #352
	.loc 2 765 7
	movs	r2, #5
	mov	r1, r3
	bl	memcpy
	.loc 2 767 14
	ldr	r3, [sp, #116]
	add	r0, r3, #135
	.loc 2 767 57
	ldr	r3, [sp, #116]
	add	r3, r3, #336
	.loc 2 767 7
	movs	r2, #5
	mov	r1, r3
	bl	memcpy
.L60:
	.loc 2 776 22
	ldr	r3, [sp, #116]
	ldrb	r3, [r3, #4]	@ zero_extendqisi2
	.loc 2 776 17
	cmp	r3, #11
	bne	.L63
	.loc 2 778 36
	ldr	r3, [sp, #116]
	movs	r2, #4
	strb	r2, [r3, #4]
	.loc 2 779 23
	ldr	r3, [sp, #116]
	ldrb	r3, [r3, #1]	@ zero_extendqisi2
	.loc 2 779 18
	cmp	r3, #2
	bne	.L63
	.loc 2 781 17
	ldr	r0, [sp, #116]
	bl	instance_backtoanchor
	.loc 2 782 17
	movs	r0, #0
	bl	dwt_rxenable
.L63:
	.loc 2 785 40
	ldr	r3, [sp, #116]
	movs	r2, #6
	strb	r2, [r3, #2]
	.loc 2 787 29
	movs	r3, #0
	str	r3, [sp, #112]
.LBE7:
	.loc 2 791 13
	b	.L39
.L28:
	.loc 2 800 20
	ldr	r3, [sp, #116]
	ldrb	r3, [r3, #360]	@ zero_extendqisi2
	.loc 2 800 15
	cmp	r3, #0
	bne	.L64
	.loc 2 803 14
	movs	r0, #0
	bl	dwt_rxenable
	b	.L65
.L64:
	.loc 2 807 32
	ldr	r3, [sp, #116]
	movs	r2, #0
	strb	r2, [r3, #360]
.L65:
	.loc 2 810 21
	ldr	r3, [sp, #116]
	ldrb	r3, [r3, #1]	@ zero_extendqisi2
	.loc 2 810 16
	cmp	r3, #0
	beq	.L66
	.loc 2 812 25
	ldr	r3, [sp, #116]
	movs	r2, #1
	str	r2, [r3, #8]
.L66:
	.loc 2 815 32
	ldr	r3, [sp, #116]
	movs	r2, #7
	strb	r2, [r3, #2]
	.loc 2 818 15
	ldr	r3, [sp, #112]
	cmp	r3, #0
	.loc 2 819 9
	b	.L39
.L27:
	ldr	r3, [sp, #112]
	cmp	r3, #2
	beq	.L68
	ldr	r3, [sp, #112]
	cmp	r3, #4
	beq	.L69
	b	.L109
.L68:
.LBB8:
	.loc 2 830 31 discriminator 1
	movs	r0, #15
	bl	instance_getevent
	str	r0, [sp, #260]
	.loc 2 831 13 discriminator 1
	ldr	r3, .L116+4
	add	r2, sp, #156
	ldm	r3, {r0, r1}
	stm	r2, {r0, r1}
	.loc 2 832 13 discriminator 1
	ldr	r3, .L116+4
	add	r2, sp, #148
	ldm	r3, {r0, r1}
	stm	r2, {r0, r1}
	.loc 2 833 25 discriminator 1
	movs	r3, #0
	str	r3, [sp, #256]
	.loc 2 834 10 discriminator 1
	movs	r3, #0
	str	r3, [sp, #288]
	.loc 2 837 12 discriminator 1
	movs	r3, #0
	strb	r3, [sp, #255]
	.loc 2 842 22 discriminator 1
	ldr	r2, [sp, #116]
	movs	r3, #0
	strb	r3, [r2, #365]
	.loc 2 845 33 discriminator 1
	ldr	r3, [sp, #260]
	ldrb	r3, [r3, #29]	@ zero_extendqisi2
	.loc 2 845 37 discriminator 1
	and	r3, r3, #204
	cmp	r3, #204
	beq	.L71
	cmp	r3, #204
	bgt	.L72
	cmp	r3, #200
	beq	.L73
	cmp	r3, #200
	bgt	.L72
	cmp	r3, #136
	beq	.L74
	cmp	r3, #140
	beq	.L75
	b	.L72
.L71:
	.loc 2 848 28
	ldr	r3, [sp, #260]
	add	r1, r3, #41
	.loc 2 848 8
	add	r3, sp, #156
	movs	r2, #8
	mov	r0, r3
	bl	memcpy
	.loc 2 849 28
	ldr	r3, [sp, #260]
	add	r1, r3, #33
	.loc 2 849 8
	add	r3, sp, #148
	movs	r2, #8
	mov	r0, r3
	bl	memcpy
	.loc 2 850 53
	ldr	r3, [sp, #260]
	ldrb	r3, [r3, #49]	@ zero_extendqisi2
	.loc 2 850 16
	str	r3, [sp, #288]
	.loc 2 851 20
	ldr	r3, [sp, #260]
	adds	r3, r3, #49
	str	r3, [sp, #284]
	.loc 2 854 8
	b	.L72
.L73:
	.loc 2 856 28
	ldr	r3, [sp, #260]
	add	r1, r3, #35
	.loc 2 856 8
	add	r3, sp, #156
	movs	r2, #8
	mov	r0, r3
	bl	memcpy
	.loc 2 857 28
	ldr	r3, [sp, #260]
	add	r1, r3, #33
	.loc 2 857 8
	add	r3, sp, #148
	movs	r2, #2
	mov	r0, r3
	bl	memcpy
	.loc 2 858 53
	ldr	r3, [sp, #260]
	ldrb	r3, [r3, #43]	@ zero_extendqisi2
	.loc 2 858 16
	str	r3, [sp, #288]
	.loc 2 859 20
	ldr	r3, [sp, #260]
	adds	r3, r3, #43
	str	r3, [sp, #284]
	.loc 2 862 8
	b	.L72
.L75:
	.loc 2 864 28
	ldr	r3, [sp, #260]
	add	r1, r3, #41
	.loc 2 864 8
	add	r3, sp, #156
	movs	r2, #2
	mov	r0, r3
	bl	memcpy
	.loc 2 865 28
	ldr	r3, [sp, #260]
	add	r1, r3, #33
	.loc 2 865 8
	add	r3, sp, #148
	movs	r2, #8
	mov	r0, r3
	bl	memcpy
	.loc 2 866 53
	ldr	r3, [sp, #260]
	ldrb	r3, [r3, #43]	@ zero_extendqisi2
	.loc 2 866 16
	str	r3, [sp, #288]
	.loc 2 867 20
	ldr	r3, [sp, #260]
	adds	r3, r3, #43
	str	r3, [sp, #284]
	.loc 2 870 8
	b	.L72
.L74:
	.loc 2 872 28
	ldr	r3, [sp, #260]
	add	r1, r3, #35
	.loc 2 872 8
	add	r3, sp, #156
	movs	r2, #2
	mov	r0, r3
	bl	memcpy
	.loc 2 873 28
	ldr	r3, [sp, #260]
	add	r1, r3, #33
	.loc 2 873 8
	add	r3, sp, #148
	movs	r2, #2
	mov	r0, r3
	bl	memcpy
	.loc 2 874 53
	ldr	r3, [sp, #260]
	ldrb	r3, [r3, #37]	@ zero_extendqisi2
	.loc 2 874 16
	str	r3, [sp, #288]
	.loc 2 875 20
	ldr	r3, [sp, #260]
	adds	r3, r3, #37
	str	r3, [sp, #284]
	.loc 2 878 8
	nop
.L72:
	.loc 2 880 25
	ldrb	r3, [sp, #156]	@ zero_extendqisi2
	sxth	r2, r3
	.loc 2 880 47
	ldrb	r3, [sp, #157]	@ zero_extendqisi2
	.loc 2 880 51
	lsls	r3, r3, #8
	.loc 2 880 29
	sxth	r3, r3
	orrs	r3, r3, r2
	sxth	r3, r3
	.loc 2 880 16
	strh	r3, [sp, #252]	@ movhi
	.loc 2 881 25
	ldrb	r3, [sp, #148]	@ zero_extendqisi2
	sxth	r2, r3
	.loc 2 881 47
	ldrb	r3, [sp, #149]	@ zero_extendqisi2
	.loc 2 881 51
	lsls	r3, r3, #8
	.loc 2 881 29
	sxth	r3, r3
	orrs	r3, r3, r2
	sxth	r3, r3
	.loc 2 881 16
	strh	r3, [sp, #250]	@ movhi
	.loc 2 901 14
	ldr	r3, [sp, #116]
	ldrb	r3, [r3, #364]	@ zero_extendqisi2
	.loc 2 901 8
	cmp	r3, #0
	bne	.L76
	.loc 2 901 46 discriminator 1
	ldr	r3, [sp, #116]
	ldrb	r3, [r3, #1]	@ zero_extendqisi2
	.loc 2 901 38 discriminator 1
	cmp	r3, #0
	bne	.L76
	.loc 2 904 26
	ldr	r3, [sp, #116]
	movs	r2, #6
	strb	r2, [r3, #2]
	.loc 2 905 7
	movs	r0, #0
	bl	dwt_setrxaftertxdelay
.LBE8:
	.loc 2 1529 5
	b	.L114
.L117:
	.align	2
.L116:
	.word	-512
	.word	.LC0
.L76:
.LBB12:
	.loc 2 910 13
	ldr	r3, [sp, #288]
	str	r3, [sp, #256]
	.loc 2 912 15
	ldrb	r3, [sp, #156]
	strb	r3, [sp, #255]
	ldr	r3, [sp, #256]
	subs	r3, r3, #112
	cmp	r3, #18
	bhi	.L78
	adr	r2, .L80
	ldr	pc, [r2, r3, lsl #2]
	.p2align 2
.L80:
	.word	.L82+1
	.word	.L81+1
	.word	.L82+1
	.word	.L79+1
	.word	.L78+1
	.word	.L78+1
	.word	.L78+1
	.word	.L78+1
	.word	.L78+1
	.word	.L78+1
	.word	.L78+1
	.word	.L78+1
	.word	.L78+1
	.word	.L78+1
	.word	.L78+1
	.word	.L78+1
	.word	.L78+1
	.word	.L81+1
	.word	.L79+1
	.p2align 1
.L81:
	.loc 2 920 48
	ldr	r3, [sp, #260]
	ldrd	r2, [r3, #8]
	.loc 2 920 38
	ldr	r1, [sp, #116]
	strd	r2, [r1, #344]
	.loc 2 921 11
	ldr	r3, [sp, #256]
	cmp	r3, #129
	bne	.L83
	.loc 2 923 33
	ldrb	r3, [sp, #156]	@ zero_extendqisi2
	.loc 2 923 37
	mov	r1, r3
	.loc 2 923 45
	ldr	r3, [sp, #284]
	ldrb	r2, [r3, #1]	@ zero_extendqisi2
	ldr	r3, [sp, #116]
	add	r3, r3, r1
	strb	r2, [r3, #401]
	b	.L84
.L83:
	.loc 2 927 28
	ldrb	r3, [sp, #255]	@ zero_extendqisi2
	.loc 2 927 38
	ldr	r2, [sp, #284]
	ldrb	r1, [r2, #1]	@ zero_extendqisi2
	ldr	r2, [sp, #116]
	add	r3, r3, r2
	mov	r2, r1
	strb	r2, [r3, #418]
.L84:
	.loc 2 943 44
	ldr	r3, [sp, #260]
	ldrb	r3, [r3, #2]	@ zero_extendqisi2
	.loc 2 943 35
	cmp	r3, #12
	bne	.L85
	.loc 2 945 56
	ldr	r3, [sp, #116]
	movs	r2, #5
	strb	r2, [r3, #2]
	.loc 2 946 57
	ldr	r3, [sp, #116]
	movs	r2, #9
	strb	r2, [r3, #4]
	.loc 2 986 29
	b	.L88
.L85:
	.loc 2 949 50
	ldr	r3, [sp, #260]
	ldrb	r3, [r3, #2]	@ zero_extendqisi2
	.loc 2 949 41
	cmp	r3, #14
	bne	.L87
	.loc 2 953 53
	ldr	r3, [sp, #116]
	movs	r2, #7
	strb	r2, [r3, #2]
	.loc 2 986 29
	b	.L88
.L87:
	.loc 2 958 53
	ldr	r3, [sp, #116]
	movs	r2, #6
	strb	r2, [r3, #2]
	.loc 2 986 29
	b	.L88
.L82:
.LBB9:
	.loc 2 991 66
	ldr	r3, [sp, #284]
	adds	r3, r3, #7
	ldrb	r3, [r3]	@ zero_extendqisi2
	.loc 2 991 36
	adds	r3, r3, #1
	strb	r3, [sp, #175]
	.loc 2 1003 16
	ldr	r3, [sp, #116]
	ldrh	r3, [r3, #758]
	mov	r2, r3
	.loc 2 1003 50
	ldrb	r3, [sp, #156]	@ zero_extendqisi2
	mov	r1, r3
	.loc 2 1003 73
	ldrb	r3, [sp, #157]	@ zero_extendqisi2
	.loc 2 1003 77
	lsls	r3, r3, #8
	.loc 2 1003 54
	orrs	r3, r3, r1
	.loc 2 1003 11
	cmp	r2, r3
	bne	.L89
	.loc 2 1005 17
	ldr	r3, [sp, #116]
	ldrb	r3, [r3, #1]	@ zero_extendqisi2
	.loc 2 1005 12
	cmp	r3, #1
	bne	.L89
	.loc 2 1005 51 discriminator 1
	ldr	r3, [sp, #116]
	ldrh	r3, [r3, #46]
	.loc 2 1005 31 discriminator 1
	ldrh	r2, [sp, #250]
	cmp	r2, r3
	bne	.L89
	.loc 2 1008 68
	ldr	r3, [sp, #284]
	adds	r3, r3, #2
	ldrb	r3, [r3]	@ zero_extendqisi2
	uxth	r3, r3
	.loc 2 1008 83
	lsls	r3, r3, #8
	uxth	r2, r3
	.loc 2 1008 102
	ldr	r3, [sp, #284]
	adds	r3, r3, #1
	ldrb	r3, [r3]	@ zero_extendqisi2
	uxth	r3, r3
	.loc 2 1008 89
	add	r3, r3, r2
	uxth	r3, r3
	.loc 2 1008 38
	sxth	r3, r3
	mov	r2, r3
	.loc 2 1008 36
	ldr	r3, [sp, #116]
	str	r2, [r3, #448]
	.loc 2 1009 29
	ldr	r3, [sp, #116]
	movs	r2, #0
	str	r2, [r3, #64]
.L89:
	.loc 2 1014 41
	ldr	r3, [sp, #260]
	ldrb	r3, [r3, #2]	@ zero_extendqisi2
	.loc 2 1014 32
	cmp	r3, #12
	bne	.L90
	.loc 2 1016 41
	ldr	r3, [sp, #116]
	movs	r2, #5
	strb	r2, [r3, #2]
	.loc 2 1017 42
	ldr	r3, [sp, #116]
	movs	r2, #10
	strb	r2, [r3, #4]
	b	.L91
.L90:
	.loc 2 1020 46
	ldr	r3, [sp, #260]
	ldrb	r3, [r3, #2]	@ zero_extendqisi2
	.loc 2 1020 37
	cmp	r3, #14
	beq	.L91
	.loc 2 1030 25
	ldr	r3, [sp, #116]
	ldrb	r3, [r3, #1]	@ zero_extendqisi2
	.loc 2 1030 12
	cmp	r3, #1
	bne	.L92
	.loc 2 1030 41 discriminator 1
	ldr	r3, [sp, #116]
	ldrh	r3, [r3, #392]
	.loc 2 1030 33 discriminator 1
	cmp	r3, #0
	beq	.L92
	.loc 2 1030 84 discriminator 2
	ldr	r3, [sp, #116]
	ldrh	r3, [r3, #46]
	.loc 2 1030 63 discriminator 2
	ldrh	r2, [sp, #250]
	cmp	r2, r3
	bne	.L92
	.loc 2 1032 30
	ldr	r3, [sp, #116]
	movs	r2, #3
	strb	r2, [r3, #2]
	b	.L91
.L92:
	.loc 2 1036 25
	ldr	r3, [sp, #116]
	ldrb	r3, [r3, #1]	@ zero_extendqisi2
	.loc 2 1036 13
	cmp	r3, #1
	bne	.L93
	.loc 2 1038 31
	ldr	r3, [sp, #116]
	movs	r2, #1
	strb	r2, [r3, #2]
	.loc 2 1039 28
	ldr	r3, [sp, #116]
	movs	r2, #2
	strb	r2, [r3, #3]
	.loc 2 1040 30
	ldr	r3, [sp, #116]
	movs	r2, #1
	strb	r2, [r3, #364]
	b	.L91
.L93:
	.loc 2 1044 12
	ldr	r0, [sp, #116]
	bl	instance_backtoanchor
.L91:
	.loc 2 1054 11
	ldr	r3, [sp, #256]
	cmp	r3, #112
	bne	.L112
	.loc 2 1079 36
	ldr	r3, [sp, #116]
	ldrb	r3, [r3, #400]	@ zero_extendqisi2
	.loc 2 1079 12
	ldrb	r2, [sp, #175]	@ zero_extendqisi2
	cmp	r2, r3
	bne	.L95
	.loc 2 1081 18
	ldr	r3, [sp, #116]
	ldrb	r3, [r3, #1]	@ zero_extendqisi2
	.loc 2 1081 13
	cmp	r3, #2
	beq	.L96
	.loc 2 1081 43 discriminator 1
	ldr	r3, [sp, #116]
	ldrb	r3, [r3, #1]	@ zero_extendqisi2
	.loc 2 1081 35 discriminator 1
	cmp	r3, #1
	bne	.L112
	.loc 2 1081 77 discriminator 2
	ldr	r3, [sp, #116]
	ldrh	r3, [r3, #46]
	.loc 2 1081 57 discriminator 2
	ldrh	r2, [sp, #250]
	cmp	r2, r3
	bne	.L112
.L96:
	.loc 2 1084 43
	ldrb	r3, [sp, #156]	@ zero_extendqisi2
	.loc 2 1084 19
	adds	r3, r3, #130
	lsls	r3, r3, #2
	ldr	r2, [sp, #116]
	adds	r0, r2, r3
	.loc 2 1084 57
	ldr	r3, [sp, #284]
	adds	r3, r3, #3
	.loc 2 1084 12
	movs	r2, #4
	mov	r1, r3
	bl	memcpy
	.loc 2 1090 38
	ldrb	r3, [sp, #156]	@ zero_extendqisi2
	.loc 2 1090 42
	mov	r2, r3
	.loc 2 1090 29
	ldr	r3, [sp, #116]
	adds	r2, r2, #130
	ldr	r3, [r3, r2, lsl #2]
	.loc 2 1090 14
	ldr	r2, .L118
	cmp	r3, r2
	beq	.L112
	.loc 2 1092 34
	ldr	r3, [sp, #116]
	ldrh	r3, [r3, #392]
	sxth	r2, r3
	.loc 2 1092 56
	ldrb	r3, [sp, #156]	@ zero_extendqisi2
	.loc 2 1092 60
	mov	r1, r3
	.loc 2 1092 45
	movs	r3, #1
	lsls	r3, r3, r1
	.loc 2 1092 34
	sxth	r3, r3
	orrs	r3, r3, r2
	sxth	r3, r3
	uxth	r2, r3
	ldr	r3, [sp, #116]
	strh	r2, [r3, #392]	@ movhi
.LBE9:
	.loc 2 1163 29
	b	.L112
.L95:
.LBB10:
	.loc 2 1127 37
	ldrb	r3, [sp, #156]	@ zero_extendqisi2
	.loc 2 1127 41
	mov	r2, r3
	.loc 2 1127 28
	ldr	r3, [sp, #116]
	adds	r2, r2, #130
	ldr	r3, [r3, r2, lsl #2]
	.loc 2 1127 13
	ldr	r2, .L118
	cmp	r3, r2
	beq	.L112
	.loc 2 1129 35
	ldrb	r3, [sp, #156]	@ zero_extendqisi2
	.loc 2 1129 39
	mov	r2, r3
	.loc 2 1129 48
	ldr	r3, [sp, #116]
	adds	r2, r2, #130
	ldr	r1, .L118
	str	r1, [r3, r2, lsl #2]
.LBE10:
	.loc 2 1163 29
	b	.L112
.L79:
.LBB11:
	.loc 2 1170 40
	mov	r2, #0
	mov	r3, #0
	strd	r2, [sp, #136]
	.loc 2 1171 40
	mov	r2, #0
	mov	r3, #0
	strd	r2, [sp, #240]
	.loc 2 1172 40
	mov	r2, #0
	mov	r3, #0
	strd	r2, [sp, #128]
	.loc 2 1173 40
	mov	r2, #0
	mov	r3, #0
	strd	r2, [sp, #120]
	.loc 2 1174 40
	ldr	r2, .L118
	mov	r3, #0
	strd	r2, [sp, #272]
	.loc 2 1176 40
	mov	r2, #0
	mov	r3, #0
	strd	r2, [sp, #232]
	.loc 2 1177 16
	mov	r2, #0
	mov	r3, #0
	strd	r2, [sp, #224]
	.loc 2 1178 16
	mov	r2, #0
	mov	r3, #0
	strd	r2, [sp, #216]
	.loc 2 1190 44
	ldr	r3, [sp, #116]
	ldrb	r3, [r3, #1896]	@ zero_extendqisi2
	.loc 2 1190 39
	adds	r2, r3, #5
	ldr	r3, [sp, #284]
	add	r3, r3, r2
	ldrb	r3, [r3]	@ zero_extendqisi2
	uxth	r1, r3
	.loc 2 1191 36
	ldr	r3, [sp, #116]
	ldrb	r3, [r3, #1896]	@ zero_extendqisi2
	.loc 2 1191 31
	adds	r2, r3, #6
	ldr	r3, [sp, #284]
	add	r3, r3, r2
	ldrb	r3, [r3]	@ zero_extendqisi2
	uxth	r3, r3
	.loc 2 1191 11
	lsls	r3, r3, #8
	uxth	r3, r3
	.loc 2 1190 16
	orrs	r3, r3, r1
	strh	r3, [sp, #214]	@ movhi
	.loc 2 1192 38
	ldr	r3, [sp, #116]
	ldrb	r3, [r3, #251]	@ zero_extendqisi2
	.loc 2 1192 29
	mov	r2, r3
	mov	r3, r2
	lsls	r3, r3, #2
	add	r3, r3, r2
	uxtb	r3, r3
	.loc 2 1192 15
	adds	r3, r3, #7
	strb	r3, [sp, #213]
	.loc 2 1216 11
	ldr	r3, [sp, #256]
	cmp	r3, #130
	bne	.L97
	.loc 2 1217 35 discriminator 1
	ldrb	r3, [sp, #156]	@ zero_extendqisi2
	.loc 2 1217 39 discriminator 1
	mov	r2, r3
	.loc 2 1217 27 discriminator 1
	ldr	r3, [sp, #116]
	add	r3, r3, r2
	ldrb	r2, [r3, #401]	@ zero_extendqisi2
	.loc 2 1217 61 discriminator 1
	ldr	r3, [sp, #284]
	adds	r3, r3, #1
	ldrb	r3, [r3]	@ zero_extendqisi2
	.loc 2 1216 47 discriminator 1
	cmp	r2, r3
	beq	.L97
	.loc 2 1219 56
	ldr	r3, [sp, #116]
	movs	r2, #6
	strb	r2, [r3, #2]
	b	.L88
.L119:
	.align	2
.L118:
	.word	-1412562945
.L97:
	.loc 2 1241 64
	ldr	r3, [sp, #116]
	ldrh	r3, [r3, #46]
	mov	r2, r3
	.loc 2 1241 58
	ldr	r3, [sp, #116]
	str	r2, [r3, #740]
	.loc 2 1246 58
	ldrh	r2, [sp, #214]
	.loc 2 1246 40
	ldr	r3, [sp, #116]
	ldrb	r3, [r3, #251]	@ zero_extendqisi2
	.loc 2 1246 58
	asr	r3, r2, r3
	and	r3, r3, #1
	.loc 2 1246 11
	cmp	r3, #0
	beq	.L98
	.loc 2 1249 25
	ldr	r3, [sp, #260]
	ldrd	r2, [r3, #8]
	strd	r2, [sp, #240]
	.loc 2 1252 33
	ldr	r2, [sp, #116]
	movs	r3, #0
	str	r3, [r2, #116]
	.loc 2 1256 33
	ldr	r3, [sp, #284]
	adds	r1, r3, #2
	.loc 2 1256 10
	add	r3, sp, #128
	movs	r2, #5
	mov	r0, r3
	bl	memcpy
	.loc 2 1257 10
	ldrb	r2, [sp, #213]	@ zero_extendqisi2
	.loc 2 1257 36
	ldr	r3, [sp, #284]
	adds	r1, r3, r2
	.loc 2 1257 10
	add	r3, sp, #120
	movs	r2, #5
	mov	r0, r3
	bl	memcpy
	.loc 2 1259 52
	ldr	r3, [sp, #116]
	ldrb	r3, [r3, #1896]	@ zero_extendqisi2
	mov	r2, r3
	.loc 2 1259 34
	ldr	r3, [sp, #284]
	adds	r1, r3, r2
	.loc 2 1259 10
	add	r3, sp, #136
	movs	r2, #5
	mov	r0, r3
	bl	memcpy
	.loc 2 1271 32
	ldrd	r0, [sp, #128]
	ldr	r3, [sp, #116]
	addw	r3, r3, #3048
	strd	r0, [r3]
	.loc 2 1272 32
	ldrd	r0, [sp, #120]
	ldr	r3, [sp, #116]
	addw	r3, r3, #3176
	strd	r0, [r3]
	.loc 2 1273 32
	ldrd	r0, [sp, #136]
	ldr	r3, [sp, #116]
	addw	r3, r3, #3112
	strd	r0, [r3]
	.loc 2 1275 38
	ldr	r3, [sp, #116]
	ldrd	r0, [r3, #344]
	.loc 2 1275 54
	mov	r2, #-1
	mov	r3, #255
	and	r4, r0, r2
	str	r4, [sp, #24]
	ands	r3, r3, r1
	str	r3, [sp, #28]
	.loc 2 1275 32
	ldr	r3, [sp, #116]
	addw	r3, r3, #3144
	ldrd	r1, [sp, #24]
	strd	r1, [r3]
	.loc 2 1276 43
	ldr	r3, [sp, #116]
	ldrd	r0, [r3, #336]
	.loc 2 1276 61
	mov	r2, #-1
	mov	r3, #255
	and	r4, r0, r2
	str	r4, [sp, #32]
	ands	r3, r3, r1
	str	r3, [sp, #36]
	.loc 2 1276 32
	ldr	r3, [sp, #116]
	addw	r3, r3, #3080
	ldrd	r1, [sp, #32]
	strd	r1, [r3]
	.loc 2 1277 49
	ldrd	r0, [sp, #240]
	mov	r2, #-1
	mov	r3, #255
	and	r4, r0, r2
	str	r4, [sp, #40]
	ands	r3, r3, r1
	str	r3, [sp, #44]
	.loc 2 1277 32
	ldr	r3, [sp, #116]
	addw	r3, r3, #3208
	ldrd	r1, [sp, #40]
	strd	r1, [r3]
	.loc 2 1285 41
	ldrd	r0, [sp, #120]
	ldrd	r2, [sp, #128]
	subs	r4, r0, r2
	str	r4, [sp, #48]
	sbc	r3, r1, r3
	str	r3, [sp, #52]
	.loc 2 1285 58
	ldrd	r0, [sp, #48]
	.loc 2 1285 13
	mov	r2, #-1
	mov	r3, #255
	and	r4, r0, r2
	str	r4, [sp, #80]
	ands	r3, r3, r1
	str	r3, [sp, #84]
	ldrd	r3, [sp, #80]
	strd	r3, [sp, #200]
	.loc 2 1286 33
	ldr	r3, [sp, #116]
	ldrd	r0, [r3, #336]
	.loc 2 1286 57
	ldr	r3, [sp, #116]
	ldrd	r2, [r3, #344]
	.loc 2 1286 51
	subs	r4, r0, r2
	str	r4, [sp, #56]
	sbc	r3, r1, r3
	str	r3, [sp, #60]
	.loc 2 1286 74
	ldrd	r0, [sp, #56]
	.loc 2 1286 13
	mov	r2, #-1
	mov	r3, #255
	and	r4, r0, r2
	str	r4, [sp, #88]
	ands	r3, r3, r1
	str	r3, [sp, #92]
	ldrd	r3, [sp, #88]
	strd	r3, [sp, #192]
	.loc 2 1290 50
	ldr	r3, [sp, #116]
	ldrd	r2, [r3, #336]
	.loc 2 1290 39
	ldrd	r0, [sp, #240]
	subs	r4, r0, r2
	str	r4, [sp, #64]
	sbc	r3, r1, r3
	str	r3, [sp, #68]
	.loc 2 1290 69
	ldrd	r0, [sp, #64]
	.loc 2 1290 13
	mov	r2, #-1
	mov	r3, #255
	and	r4, r0, r2
	str	r4, [sp, #96]
	ands	r3, r3, r1
	str	r3, [sp, #100]
	ldrd	r3, [sp, #96]
	strd	r3, [sp, #184]
	.loc 2 1291 39
	ldrd	r0, [sp, #136]
	ldrd	r2, [sp, #120]
	subs	r4, r0, r2
	str	r4, [sp, #72]
	sbc	r3, r1, r3
	str	r3, [sp, #76]
	.loc 2 1291 59
	ldrd	r0, [sp, #72]
	.loc 2 1291 13
	mov	r2, #-1
	mov	r3, #255
	and	r4, r0, r2
	str	r4, [sp, #104]
	ands	r3, r3, r1
	str	r3, [sp, #108]
	ldrd	r3, [sp, #104]
	strd	r3, [sp, #176]
	.loc 2 1293 24
	ldrd	r0, [sp, #200]
	bl	__aeabi_l2d
.LVL0:
	mov	r4, r0
	mov	r5, r1
	.loc 2 1293 39
	ldrd	r0, [sp, #184]
	bl	__aeabi_l2d
.LVL1:
	mov	r2, r0
	mov	r3, r1
	.loc 2 1293 36
	mov	r0, r4
	mov	r1, r5
	bl	__aeabi_dmul
.LVL2:
	mov	r2, r0
	mov	r3, r1
	mov	r6, r2
	mov	r7, r3
	.loc 2 1294 14
	ldrd	r0, [sp, #176]
	bl	__aeabi_l2d
.LVL3:
	mov	r4, r0
	mov	r5, r1
	.loc 2 1294 29
	ldrd	r0, [sp, #192]
	bl	__aeabi_l2d
.LVL4:
	mov	r2, r0
	mov	r3, r1
	.loc 2 1294 26
	mov	r0, r4
	mov	r1, r5
	bl	__aeabi_dmul
.LVL5:
	mov	r2, r0
	mov	r3, r1
	.loc 2 1293 20
	mov	r0, r6
	mov	r1, r7
	bl	__aeabi_dsub
.LVL6:
	mov	r2, r0
	mov	r3, r1
	strd	r2, [sp, #232]
	.loc 2 1296 19
	ldrd	r0, [sp, #184]
	bl	__aeabi_l2d
.LVL7:
	mov	r4, r0
	mov	r5, r1
	.loc 2 1296 32
	ldrd	r0, [sp, #192]
	bl	__aeabi_l2d
.LVL8:
	mov	r2, r0
	mov	r3, r1
	.loc 2 1296 16
	mov	r0, r4
	mov	r1, r5
	bl	__aeabi_dadd
.LVL9:
	mov	r2, r0
	mov	r3, r1
	strd	r2, [sp, #224]
	.loc 2 1298 19
	ldrd	r0, [sp, #200]
	bl	__aeabi_l2d
.LVL10:
	mov	r4, r0
	mov	r5, r1
	.loc 2 1298 32
	ldrd	r0, [sp, #176]
	bl	__aeabi_l2d
.LVL11:
	mov	r2, r0
	mov	r3, r1
	.loc 2 1298 16
	mov	r0, r4
	mov	r1, r5
	bl	__aeabi_dadd
.LVL12:
	mov	r2, r0
	mov	r3, r1
	strd	r2, [sp, #216]
	.loc 2 1300 43
	ldrd	r2, [sp, #216]
	ldrd	r0, [sp, #224]
	bl	__aeabi_dadd
.LVL13:
	mov	r2, r0
	mov	r3, r1
	.loc 2 1300 35
	ldrd	r0, [sp, #232]
	bl	__aeabi_ddiv
.LVL14:
	mov	r2, r0
	mov	r3, r1
	.loc 2 1300 16
	mov	r0, r2
	mov	r1, r3
	bl	__aeabi_d2iz
.LVL15:
	mov	r3, r0
	.loc 2 1300 14
	mov	r2, r3
	asr	r3, r2, #31
	strd	r2, [sp, #272]
.L98:
	.loc 2 1304 11
	ldr	r3, [sp, #256]
	cmp	r3, #130
	bne	.L99
	.loc 2 1306 44
	ldrb	r3, [sp, #156]	@ zero_extendqisi2
	mov	r2, r3
	.loc 2 1306 67
	ldrb	r3, [sp, #157]	@ zero_extendqisi2
	.loc 2 1306 71
	lsls	r3, r3, #8
	.loc 2 1306 48
	add	r2, r2, r3
	.loc 2 1306 35
	ldr	r3, [sp, #116]
	str	r2, [r3, #744]
	.loc 2 1308 24
	ldr	r3, [sp, #116]
	ldr	r3, [r3, #744]
	.loc 2 1308 45
	uxtb	r2, r3
	.loc 2 1308 53
	ldr	r1, [sp, #272]
	ldr	r3, [sp, #116]
	adds	r2, r2, #114
	str	r1, [r3, r2, lsl #2]
	.loc 2 1311 27
	ldr	r3, [sp, #116]
	add	r0, r3, #520
	ldr	r3, [sp, #116]
	ldrh	r1, [r3, #1902]
	ldr	r3, [sp, #116]
	add	r3, r3, #392
	movs	r2, #0
	str	r2, [sp]
	movs	r2, #1
	bl	instance_calcranges
	mov	r2, r0
	.loc 2 1311 25
	ldr	r3, [sp, #116]
	str	r2, [r3, #732]
	.loc 2 1312 43
	ldr	r3, [sp, #116]
	ldrh	r2, [r3, #392]
	.loc 2 1312 37
	ldr	r3, [sp, #116]
	strh	r2, [r3, #396]	@ movhi
	.loc 2 1313 31
	ldr	r3, [sp, #116]
	movs	r2, #0
	strh	r2, [r3, #392]	@ movhi
	.loc 2 1315 12
	ldrd	r2, [sp, #272]
	ldr	r0, .L120
	mov	r1, #0
	cmp	r3, r1
	it	eq
	cmpeq	r2, r0
	beq	.L100
	.loc 2 1317 29
	ldrb	r3, [sp, #156]	@ zero_extendqisi2
	.loc 2 1317 11
	mov	r2, r3
	.loc 2 1317 38
	ldr	r3, [sp, #116]
	ldrb	r3, [r3, #251]	@ zero_extendqisi2
	.loc 2 1317 11
	mov	r1, r3
	mov	r0, r2
	bl	setTagDist
	.loc 2 1319 49
	ldr	r3, [sp, #116]
	ldrb	r3, [r3, #251]	@ zero_extendqisi2
	mov	r2, r3
	.loc 2 1319 42
	movs	r3, #1
	lsls	r3, r3, r2
	.loc 2 1319 32
	uxth	r2, r3
	ldr	r3, [sp, #116]
	strh	r2, [r3, #392]	@ movhi
	.loc 2 1320 30
	ldr	r3, [sp, #116]
	ldrb	r3, [r3, #251]	@ zero_extendqisi2
	mov	r2, r3
	.loc 2 1320 46
	ldr	r1, [sp, #272]
	ldr	r3, [sp, #116]
	adds	r2, r2, #130
	str	r1, [r3, r2, lsl #2]
.L100:
	.loc 2 1322 39
	ldr	r3, [sp, #260]
	ldr	r3, [r3, #24]
	mov	r2, r3
	.loc 2 1322 29
	ldr	r3, [sp, #116]
	str	r2, [r3, #748]
.L99:
	.loc 2 1333 39
	ldr	r3, [sp, #116]
	ldrb	r3, [r3, #1904]	@ zero_extendqisi2
	mov	r2, r3
	.loc 2 1333 34
	ldr	r3, [sp, #116]
	add	r3, r3, r2
	ldrsb	r3, [r3, #1905]
	.loc 2 1333 20
	cmp	r3, #0
	blt	.L101
	.loc 2 1335 76
	ldr	r3, [sp, #116]
	ldrb	r3, [r3, #1904]	@ zero_extendqisi2
	mov	r2, r3
	.loc 2 1335 71
	ldr	r3, [sp, #116]
	add	r3, r3, r2
	ldrsb	r3, [r3, #1905]
	uxtb	r3, r3
	.loc 2 1335 51
	rsbs	r3, r3, #0
	uxtb	r2, r3
	.loc 2 1335 37
	ldr	r3, [sp, #116]
	ldrb	r3, [r3, #1904]	@ zero_extendqisi2
	mov	r1, r3
	.loc 2 1335 51
	sxtb	r2, r2
	ldr	r3, [sp, #116]
	add	r3, r3, r1
	strb	r2, [r3, #1905]
	.loc 2 1336 40
	ldr	r3, [sp, #116]
	ldrb	r3, [r3, #1904]	@ zero_extendqisi2
	mov	r2, r3
	.loc 2 1336 35
	ldr	r3, [sp, #116]
	add	r3, r3, r2
	ldrsb	r3, [r3, #1905]
	.loc 2 1336 21
	cmp	r3, #0
	bne	.L101
	.loc 2 1337 38
	ldr	r3, [sp, #116]
	ldrb	r3, [r3, #1904]	@ zero_extendqisi2
	mov	r2, r3
	.loc 2 1337 52
	ldr	r3, [sp, #116]
	add	r3, r3, r2
	movs	r2, #255
	strb	r2, [r3, #1905]
.L101:
	.loc 2 1342 18
	bl	instancesettxpower
	.loc 2 1344 26
	ldr	r3, [sp, #116]
	ldrb	r3, [r3, #1]	@ zero_extendqisi2
	.loc 2 1344 21
	cmp	r3, #2
	bne	.L113
	.loc 2 1356 39
	ldr	r3, [sp, #116]
	movs	r2, #6
	strb	r2, [r3, #2]
.LBE11:
	.loc 2 1376 29
	b	.L113
.L78:
	.loc 2 1514 52
	ldr	r3, [sp, #116]
	movs	r2, #6
	strb	r2, [r3, #2]
	.loc 2 1515 9
	movs	r0, #0
	bl	dwt_setrxaftertxdelay
	.loc 2 1518 29
	b	.L88
.L112:
	.loc 2 1163 29
	nop
	b	.L88
.L113:
	.loc 2 1376 29
	nop
.L88:
	.loc 2 1521 30
	ldr	r3, [sp, #260]
	ldrb	r3, [r3, #28]	@ zero_extendqisi2
	.loc 2 1521 34
	and	r3, r3, #32
	.loc 2 1521 9
	cmp	r3, #0
	beq	.L114
	.loc 2 1524 8
	movs	r0, #16
	bl	instance_getevent
.LBE12:
	.loc 2 1529 5
	b	.L114
.L69:
.LBB13:
	.loc 2 1533 44
	movs	r0, #17
	bl	instance_getevent
	str	r0, [sp, #264]
	.loc 2 1538 30
	ldr	r3, [sp, #264]
	ldrb	r3, [r3, #2]	@ zero_extendqisi2
	.loc 2 1538 21
	cmp	r3, #12
	bne	.L104
	.loc 2 1540 39
	ldr	r3, [sp, #116]
	movs	r2, #5
	strb	r2, [r3, #2]
	.loc 2 1541 40
	ldr	r3, [sp, #116]
	movs	r2, #11
	strb	r2, [r3, #4]
	b	.L105
.L104:
	.loc 2 1543 35
	ldr	r3, [sp, #264]
	ldrb	r3, [r3, #2]	@ zero_extendqisi2
	.loc 2 1543 26
	cmp	r3, #15
	bne	.L105
	.loc 2 1545 8
	ldr	r0, [sp, #116]
	bl	inst_processrxtimeout
.L105:
	.loc 2 1548 15
	movs	r3, #0
	str	r3, [sp, #112]
.LBE13:
	.loc 2 1550 17
	b	.L103
.L109:
	.loc 2 1556 23
	ldr	r3, [sp, #112]
	cmp	r3, #0
	beq	.L106
	.loc 2 1558 33
	ldr	r3, [sp, #116]
	movs	r2, #1
	str	r2, [r3, #8]
.L106:
	.loc 2 1561 25
	ldr	r3, [sp, #116]
	ldr	r3, [r3, #8]
	.loc 2 1561 20
	cmp	r3, #0
	bne	.L115
	.loc 2 1561 65 discriminator 1
	ldr	r3, [sp, #116]
	movs	r2, #1
	str	r2, [r3, #8]
	.loc 2 1563 17 discriminator 1
	b	.L115
.L114:
	.loc 2 1529 5
	nop
	b	.L39
.L115:
	.loc 2 1563 17
	nop
.L103:
	.loc 2 1566 13
	b	.L39
.L110:
	.loc 2 1569 13
	nop
.L39:
	.loc 2 1572 16
	ldr	r3, [sp, #116]
	ldr	r3, [r3, #8]
	.loc 2 1573 1
	mov	r0, r3
	add	sp, sp, #300
.LCFI15:
	@ sp needed
	pop	{r4, r5, r6, r7, r8, r9, r10, fp, pc}
.L121:
	.align	2
.L120:
	.word	-1412562945
.LFE220:
	.size	testapprun_TWR, .-testapprun_TWR
	.section	.text.testapprun_TOA,"ax",%progbits
	.align	1
	.global	testapprun_TOA
	.syntax unified
	.thumb
	.thumb_func
	.fpu fpv4-sp-d16
	.type	testapprun_TOA, %function
testapprun_TOA:
.LFB221:
	.loc 2 1582 1
	@ args = 0, pretend = 0, frame = 8
	@ frame_needed = 0, uses_anonymous_args = 0
	@ link register save eliminated.
	sub	sp, sp, #8
.LCFI16:
	str	r0, [sp, #4]
	str	r1, [sp]
	.loc 2 2531 16
	ldr	r3, [sp, #4]
	ldr	r3, [r3, #8]
	.loc 2 2532 1
	mov	r0, r3
	add	sp, sp, #8
.LCFI17:
	@ sp needed
	bx	lr
.LFE221:
	.size	testapprun_TOA, .-testapprun_TOA
	.global	__aeabi_f2d
	.global	__aeabi_i2d
	.section	.text.instancesetreplydelay,"ax",%progbits
	.align	1
	.global	instancesetreplydelay
	.syntax unified
	.thumb
	.thumb_func
	.fpu fpv4-sp-d16
	.type	instancesetreplydelay, %function
instancesetreplydelay:
.LFB222:
	.loc 2 2549 1
	@ args = 0, pretend = 0, frame = 48
	@ frame_needed = 0, uses_anonymous_args = 0
	push	{r4, r5, lr}
.LCFI18:
	sub	sp, sp, #52
.LCFI19:
	str	r0, [sp, #4]
	str	r1, [sp]
	.loc 2 2550 9
	movs	r3, #0
	str	r3, [sp, #32]
	.loc 2 2552 9
	movw	r3, #3000
	str	r3, [sp, #44]
	.loc 2 2553 9
	movs	r3, #0
	str	r3, [sp, #28]
	.loc 2 2554 9
	movs	r3, #0
	str	r3, [sp, #24]
	.loc 2 2557 8
	mov	r3, #0
	str	r3, [sp, #40]	@ float
	.loc 2 2558 8
	mov	r3, #0
	str	r3, [sp, #36]	@ float
	.loc 2 2559 6
	movs	r3, #0
	str	r3, [sp, #20]
	.loc 2 2560 6
	movs	r3, #0
	str	r3, [sp, #16]
	.loc 2 2563 9
	movs	r3, #0
	str	r3, [sp, #12]
	.loc 2 2569 38
	ldr	r2, .L143
	ldr	r3, [sp, #32]
	mov	r1, #6720
	mul	r3, r1, r3
	add	r3, r3, r2
	adds	r3, r3, #104
	ldrh	r3, [r3]
	.loc 2 2569 83
	adds	r3, r3, #11
	.loc 2 2569 13
	vmov	s15, r3	@ int
	vcvt.f32.s32	s15, s15
	vstr.32	s15, [sp, #40]
	.loc 2 2573 27
	vldr.32	s15, [sp, #40]
	vmov.f32	s14, #8.0e+0
	vmul.f32	s15, s15, s14
	.loc 2 2573 29
	vldr.32	s14, .L143+4
	vdiv.f32	s13, s15, s14
	.loc 2 2573 12
	vmov	r0, s13
	bl	__aeabi_f2d
.LVL16:
	mov	r2, r0
	mov	r3, r1
	vmov	d0, r2, r3
	bl	ceil
	vmov	r2, r3, d0
	.loc 2 2573 4
	mov	r0, r2
	mov	r1, r3
	bl	__aeabi_d2iz
.LVL17:
	mov	r3, r0
	str	r3, [sp, #16]
	.loc 2 2575 25
	vldr.32	s15, [sp, #40]
	vmov.f32	s14, #8.0e+0
	vmul.f32	s14, s15, s14
	.loc 2 2575 31
	ldr	r2, [sp, #16]
	mov	r3, r2
	lsls	r3, r3, #1
	add	r3, r3, r2
	lsls	r3, r3, #4
	vmov	s15, r3	@ int
	.loc 2 2575 28
	vcvt.f32.s32	s15, s15
	.loc 2 2575 13
	vadd.f32	s15, s14, s15
	vstr.32	s15, [sp, #40]
	.loc 2 2578 9
	movs	r3, #0
	str	r3, [sp, #44]
	.loc 2 2580 23
	ldr	r3, [sp, #44]
	lsls	r3, r3, #3
	.loc 2 2580 25
	vmov	s15, r3	@ int
	vcvt.f32.s32	s15, s15
	vldr.32	s14, .L143+4
	vdiv.f32	s13, s15, s14
	.loc 2 2580 12
	vmov	r0, s13
	bl	__aeabi_f2d
.LVL18:
	mov	r2, r0
	mov	r3, r1
	vmov	d0, r2, r3
	bl	ceil
	vmov	r2, r3, d0
	.loc 2 2580 4
	mov	r0, r2
	mov	r1, r3
	bl	__aeabi_d2iz
.LVL19:
	mov	r3, r0
	str	r3, [sp, #16]
	.loc 2 2582 20
	ldr	r2, [sp, #16]
	mov	r3, r2
	lsls	r3, r3, #1
	add	r3, r3, r2
	lsls	r3, r3, #1
	mov	r2, r3
	ldr	r3, [sp, #44]
	add	r3, r3, r2
	.loc 2 2582 9
	lsls	r3, r3, #3
	str	r3, [sp, #44]
	.loc 2 2585 39
	ldr	r2, .L143
	ldr	r3, [sp, #32]
	mov	r1, #6720
	mul	r3, r1, r3
	add	r3, r3, r2
	adds	r3, r3, #19
	ldrb	r3, [r3]	@ zero_extendqisi2
	.loc 2 2585 4
	cmp	r3, #0
	bne	.L125
	.loc 2 2587 14
	vldr.32	s15, [sp, #40]
	vldr.32	s14, .L143+8
	vmul.f32	s15, s15, s14
	vstr.32	s15, [sp, #40]
	.loc 2 2588 14
	vldr.32	s15, [sp, #40]
	vldr.32	s14, .L143+12
	vadd.f32	s15, s15, s14
	vstr.32	s15, [sp, #40]
	.loc 2 2590 10
	ldr	r3, [sp, #44]
	vmov	s15, r3	@ int
	vcvt.f32.s32	s15, s15
	vldr.32	s14, .L143+8
	vmul.f32	s15, s15, s14
	vcvt.s32.f32	s15, s15
	vmov	r3, s15	@ int
	str	r3, [sp, #44]
	b	.L126
.L125:
	.loc 2 2593 44
	ldr	r2, .L143
	ldr	r3, [sp, #32]
	mov	r1, #6720
	mul	r3, r1, r3
	add	r3, r3, r2
	adds	r3, r3, #19
	ldrb	r3, [r3]	@ zero_extendqisi2
	.loc 2 2593 9
	cmp	r3, #1
	bne	.L127
	.loc 2 2595 14
	vldr.32	s15, [sp, #40]
	vldr.32	s14, .L143+16
	vmul.f32	s15, s15, s14
	vstr.32	s15, [sp, #40]
	.loc 2 2596 14
	vldr.32	s15, [sp, #40]
	vldr.32	s14, .L143+20
	vadd.f32	s15, s15, s14
	vstr.32	s15, [sp, #40]
	.loc 2 2598 10
	ldr	r3, [sp, #44]
	vmov	s15, r3	@ int
	vcvt.f32.s32	s15, s15
	vldr.32	s14, .L143+16
	vmul.f32	s15, s15, s14
	vcvt.s32.f32	s15, s15
	vmov	r3, s15	@ int
	str	r3, [sp, #44]
	b	.L126
.L127:
	.loc 2 2602 14
	vldr.32	s15, [sp, #40]
	vldr.32	s14, .L143+24
	vmul.f32	s15, s15, s14
	vstr.32	s15, [sp, #40]
	.loc 2 2603 14
	vldr.32	s15, [sp, #40]
	vldr.32	s14, .L143+20
	vadd.f32	s15, s15, s14
	vstr.32	s15, [sp, #40]
	.loc 2 2605 10
	ldr	r3, [sp, #44]
	vmov	s15, r3	@ int
	vcvt.f32.s32	s15, s15
	vldr.32	s14, .L143+24
	vmul.f32	s15, s15, s14
	vcvt.s32.f32	s15, s15
	vmov	r3, s15	@ int
	str	r3, [sp, #44]
.L126:
	.loc 2 2610 56
	ldr	r2, .L143
	ldr	r3, [sp, #32]
	mov	r1, #6720
	mul	r3, r1, r3
	add	r3, r3, r2
	adds	r3, r3, #19
	ldrb	r3, [r3]	@ zero_extendqisi2
	mov	r2, r3
	.loc 2 2610 21
	ldr	r3, .L143+28
	ldrb	r3, [r3, r2]	@ zero_extendqisi2
	.loc 2 2610 9
	str	r3, [sp, #20]
	.loc 2 2612 44
	ldr	r2, .L143
	ldr	r3, [sp, #32]
	mov	r1, #6720
	mul	r3, r1, r3
	add	r3, r3, r2
	adds	r3, r3, #14
	ldrb	r3, [r3]	@ zero_extendqisi2
	subs	r3, r3, #4
	cmp	r3, #48
	bhi	.L128
	adr	r2, .L130
	ldr	pc, [r2, r3, lsl #2]
	.p2align 2
.L130:
	.word	.L137+1
	.word	.L128+1
	.word	.L128+1
	.word	.L128+1
	.word	.L136+1
	.word	.L128+1
	.word	.L128+1
	.word	.L128+1
	.word	.L135+1
	.word	.L128+1
	.word	.L128+1
	.word	.L128+1
	.word	.L128+1
	.word	.L128+1
	.word	.L128+1
	.word	.L128+1
	.word	.L134+1
	.word	.L128+1
	.word	.L128+1
	.word	.L128+1
	.word	.L133+1
	.word	.L128+1
	.word	.L128+1
	.word	.L128+1
	.word	.L128+1
	.word	.L128+1
	.word	.L128+1
	.word	.L128+1
	.word	.L128+1
	.word	.L128+1
	.word	.L128+1
	.word	.L128+1
	.word	.L132+1
	.word	.L128+1
	.word	.L128+1
	.word	.L128+1
	.word	.L131+1
	.word	.L128+1
	.word	.L128+1
	.word	.L128+1
	.word	.L128+1
	.word	.L128+1
	.word	.L128+1
	.word	.L128+1
	.word	.L128+1
	.word	.L128+1
	.word	.L128+1
	.word	.L128+1
	.word	.L129+1
	.p2align 1
.L135:
	.loc 2 2614 38
	mov	r3, #1166016512
	str	r3, [sp, #36]	@ float
	.loc 2 2614 5
	b	.L128
.L131:
	.loc 2 2615 38
	mov	r3, #1157627904
	str	r3, [sp, #36]	@ float
	.loc 2 2615 5
	b	.L128
.L133:
	.loc 2 2616 38
	ldr	r3, .L143+32
	str	r3, [sp, #36]	@ float
	.loc 2 2616 5
	b	.L128
.L136:
	.loc 2 2617 38
	mov	r3, #1149239296
	str	r3, [sp, #36]	@ float
	.loc 2 2617 5
	b	.L128
.L129:
	.loc 2 2618 38
	mov	r3, #1140850688
	str	r3, [sp, #36]	@ float
	.loc 2 2618 5
	b	.L128
.L132:
	.loc 2 2619 38
	mov	r3, #1132462080
	str	r3, [sp, #36]	@ float
	.loc 2 2619 5
	b	.L128
.L134:
	.loc 2 2620 38
	mov	r3, #1124073472
	str	r3, [sp, #36]	@ float
	.loc 2 2620 5
	b	.L128
.L137:
	.loc 2 2621 38
	mov	r3, #1115684864
	str	r3, [sp, #36]	@ float
	.loc 2 2621 5
	nop
.L128:
	.loc 2 2625 39
	ldr	r2, .L143
	ldr	r3, [sp, #32]
	mov	r1, #6720
	mul	r3, r1, r3
	add	r3, r3, r2
	adds	r3, r3, #13
	ldrb	r3, [r3]	@ zero_extendqisi2
	.loc 2 2625 4
	cmp	r3, #1
	bne	.L138
	.loc 2 2627 25
	ldr	r3, [sp, #20]
	vmov	s15, r3	@ int
	vcvt.f32.s32	s14, s15
	vldr.32	s15, [sp, #36]
	vadd.f32	s15, s14, s15
	.loc 2 2627 15
	vldr.32	s14, .L143+36
	vmul.f32	s15, s15, s14
	vstr.32	s15, [sp, #36]
	b	.L139
.L144:
	.align	2
.L143:
	.word	instance_data
	.word	1134886912
	.word	1174418565
	.word	1210598656
	.word	1149252731
	.word	1185433088
	.word	1124087235
	.word	dwnsSFDlen
	.word	1153433600
	.word	1065245674
	.word	1065501107
.L138:
	.loc 2 2631 25
	ldr	r3, [sp, #20]
	vmov	s15, r3	@ int
	vcvt.f32.s32	s14, s15
	vldr.32	s15, [sp, #36]
	vadd.f32	s15, s14, s15
	.loc 2 2631 15
	vldr.32	s14, .L143+40
	vmul.f32	s15, s15, s14
	vstr.32	s15, [sp, #36]
.L139:
	.loc 2 2634 42
	ldr	r0, [sp, #36]	@ float
	bl	__aeabi_f2d
.LVL20:
	mov	r4, r0
	mov	r5, r1
	.loc 2 2634 57
	ldr	r3, [sp, #44]
	vmov	s15, r3	@ int
	vcvt.f32.s32	s14, s15
	vldr.32	s15, [sp, #40]
	vadd.f32	s15, s14, s15
	vmov	r0, s15
	bl	__aeabi_f2d
.LVL21:
	.loc 2 2634 66
	mov	r2, #0
	ldr	r3, .L145+8
	bl	__aeabi_ddiv
.LVL22:
	mov	r2, r0
	mov	r3, r1
	.loc 2 2634 42
	mov	r0, r4
	mov	r1, r5
	bl	__aeabi_dadd
.LVL23:
	mov	r2, r0
	mov	r3, r1
	mov	r0, r2
	mov	r1, r3
	.loc 2 2634 75
	adr	r3, .L145
	ldrd	r2, [r3]
	bl	__aeabi_ddiv
.LVL24:
	mov	r2, r0
	mov	r3, r1
	.loc 2 2634 23
	mov	r0, r2
	mov	r1, r3
	bl	__aeabi_d2iz
.LVL25:
	mov	r3, r0
	.loc 2 2634 15
	adds	r3, r3, #16
	str	r3, [sp, #24]
	.loc 2 2647 32
	ldr	r0, [sp, #36]	@ float
	bl	__aeabi_f2d
.LVL26:
	mov	r4, r0
	mov	r5, r1
	.loc 2 2647 45
	ldr	r0, [sp, #40]	@ float
	bl	__aeabi_f2d
.LVL27:
	mov	r2, #0
	ldr	r3, .L145+8
	bl	__aeabi_ddiv
.LVL28:
	mov	r2, r0
	mov	r3, r1
	.loc 2 2647 32
	mov	r0, r4
	mov	r1, r5
	bl	__aeabi_dadd
.LVL29:
	mov	r2, r0
	mov	r3, r1
	.loc 2 2647 12
	mov	r0, r2
	mov	r1, r3
	bl	__aeabi_d2iz
.LVL30:
	mov	r3, r0
	str	r3, [sp, #28]
	.loc 2 2672 39
	ldr	r2, .L145+12
	ldr	r3, [sp, #32]
	mov	r1, #6720
	mul	r3, r1, r3
	add	r3, r3, r2
	adds	r3, r3, #19
	ldrb	r3, [r3]	@ zero_extendqisi2
	.loc 2 2672 4
	cmp	r3, #0
	bne	.L140
	.loc 2 2675 79
	ldr	r2, .L145+12
	ldr	r3, [sp, #32]
	mov	r1, #6720
	mul	r3, r1, r3
	add	r3, r3, r2
	add	r3, r3, #5792
	adds	r3, r3, #20
	ldrh	r3, [r3]
	mov	r2, r3
	.loc 2 2675 54
	ldr	r3, [sp, #24]
	add	r3, r3, r2
	.loc 2 2675 102
	add	r2, r3, #400
	.loc 2 2675 39
	ldr	r1, .L145+12
	ldr	r3, [sp, #32]
	mov	r0, #6720
	mul	r3, r0, r3
	add	r3, r3, r1
	adds	r3, r3, #108
	str	r2, [r3]
	.loc 2 2677 42
	ldr	r2, .L145+12
	ldr	r3, [sp, #32]
	mov	r1, #6720
	mul	r3, r1, r3
	add	r3, r3, r2
	adds	r3, r3, #112
	ldr	r2, [sp, #24]
	str	r2, [r3]
	.loc 2 2678 113
	ldr	r2, .L145+12
	ldr	r3, [sp, #32]
	mov	r1, #6720
	mul	r3, r1, r3
	add	r3, r3, r2
	add	r3, r3, #5792
	adds	r3, r3, #20
	ldrh	r3, [r3]
	mov	r2, r3
	.loc 2 2678 88
	ldr	r3, [sp, #28]
	add	r3, r3, r2
	.loc 2 2678 48
	mov	r0, r3
	bl	__aeabi_i2d
.LVL31:
	mov	r2, r0
	mov	r3, r1
	vmov	d0, r2, r3
	bl	convertmicrosectodevicetimeu
	mov	r2, r0
	mov	r3, r1
	.loc 2 2678 46
	ldr	r0, .L145+12
	ldr	r1, [sp, #32]
	mov	r4, #6720
	mul	r1, r4, r1
	add	r1, r1, r0
	adds	r1, r1, #88
	strd	r2, [r1]
	.loc 2 2679 69
	ldr	r0, [sp, #36]	@ float
	bl	__aeabi_f2d
.LVL32:
	mov	r2, r0
	mov	r3, r1
	vmov	d0, r2, r3
	bl	convertmicrosectodevicetimeu
	.loc 2 2679 113
	mov	r2, #0
	mov	r3, #0
	lsrs	r2, r0, #8
	orr	r2, r2, r1, lsl #24
	lsrs	r3, r1, #8
	.loc 2 2679 49
	mov	r3, r2
	.loc 2 2679 119
	add	r2, r3, #16
	.loc 2 2679 47
	ldr	r1, .L145+12
	ldr	r3, [sp, #32]
	mov	r0, #6720
	mul	r3, r0, r3
	add	r3, r3, r1
	adds	r3, r3, #96
	str	r2, [r3]
	.loc 2 2681 67
	ldr	r2, .L145+12
	ldr	r3, [sp, #32]
	mov	r1, #6720
	mul	r3, r1, r3
	add	r3, r3, r2
	add	r3, r3, #5792
	adds	r3, r3, #20
	ldrh	r3, [r3]
	mov	r0, r3
	.loc 2 2681 42
	ldr	r2, .L145+12
	ldr	r3, [sp, #32]
	mov	r1, #6720
	mul	r3, r1, r3
	add	r3, r3, r2
	adds	r3, r3, #100
	str	r0, [r3]
	b	.L141
.L146:
	.align	3
.L145:
	.word	2343334157
	.word	1072720091
	.word	1083129856
	.word	instance_data
.L140:
	.loc 2 2686 79
	ldr	r2, .L147
	ldr	r3, [sp, #32]
	mov	r1, #6720
	mul	r3, r1, r3
	add	r3, r3, r2
	add	r3, r3, #5792
	adds	r3, r3, #20
	ldrh	r3, [r3]
	mov	r2, r3
	.loc 2 2686 54
	ldr	r3, [sp, #24]
	add	r2, r2, r3
	.loc 2 2686 39
	ldr	r1, .L147
	ldr	r3, [sp, #32]
	mov	r0, #6720
	mul	r3, r0, r3
	add	r3, r3, r1
	adds	r3, r3, #108
	str	r2, [r3]
	.loc 2 2688 42
	ldr	r2, .L147
	ldr	r3, [sp, #32]
	mov	r1, #6720
	mul	r3, r1, r3
	add	r3, r3, r2
	adds	r3, r3, #112
	ldr	r2, [sp, #24]
	str	r2, [r3]
	.loc 2 2689 113
	ldr	r2, .L147
	ldr	r3, [sp, #32]
	mov	r1, #6720
	mul	r3, r1, r3
	add	r3, r3, r2
	add	r3, r3, #5792
	adds	r3, r3, #20
	ldrh	r3, [r3]
	mov	r2, r3
	.loc 2 2689 88
	ldr	r3, [sp, #28]
	add	r3, r3, r2
	.loc 2 2689 48
	mov	r0, r3
	bl	__aeabi_i2d
.LVL33:
	mov	r2, r0
	mov	r3, r1
	vmov	d0, r2, r3
	bl	convertmicrosectodevicetimeu
	mov	r2, r0
	mov	r3, r1
	.loc 2 2689 46
	ldr	r0, .L147
	ldr	r1, [sp, #32]
	mov	r4, #6720
	mul	r1, r4, r1
	add	r1, r1, r0
	adds	r1, r1, #88
	strd	r2, [r1]
	.loc 2 2690 69
	ldr	r0, [sp, #36]	@ float
	bl	__aeabi_f2d
.LVL34:
	mov	r2, r0
	mov	r3, r1
	vmov	d0, r2, r3
	bl	convertmicrosectodevicetimeu
	.loc 2 2690 113
	mov	r2, #0
	mov	r3, #0
	lsrs	r2, r0, #8
	orr	r2, r2, r1, lsl #24
	lsrs	r3, r1, #8
	.loc 2 2690 49
	mov	r3, r2
	.loc 2 2690 119
	add	r2, r3, #16
	.loc 2 2690 47
	ldr	r1, .L147
	ldr	r3, [sp, #32]
	mov	r0, #6720
	mul	r3, r0, r3
	add	r3, r3, r1
	adds	r3, r3, #96
	str	r2, [r3]
	.loc 2 2692 67
	ldr	r2, .L147
	ldr	r3, [sp, #32]
	mov	r1, #6720
	mul	r3, r1, r3
	add	r3, r3, r2
	add	r3, r3, #5792
	adds	r3, r3, #20
	ldrh	r3, [r3]
	mov	r0, r3
	.loc 2 2692 42
	ldr	r2, .L147
	ldr	r3, [sp, #32]
	mov	r1, #6720
	mul	r3, r1, r3
	add	r3, r3, r2
	adds	r3, r3, #100
	str	r0, [r3]
.L141:
	.loc 2 2695 79
	ldr	r2, .L147
	ldr	r3, [sp, #32]
	mov	r1, #6720
	mul	r3, r1, r3
	add	r3, r3, r2
	add	r3, r3, #5792
	adds	r3, r3, #20
	ldrh	r2, [r3]
	.loc 2 2695 54
	ldr	r3, [sp, #28]
	uxth	r3, r3
	add	r3, r3, r2
	uxth	r0, r3
	.loc 2 2695 42
	ldr	r2, .L147
	ldr	r3, [sp, #32]
	mov	r1, #6720
	mul	r3, r1, r3
	add	r3, r3, r2
	add	r3, r3, #5792
	adds	r3, r3, #22
	mov	r2, r0	@ movhi
	strh	r2, [r3]	@ movhi
	.loc 2 2696 45
	ldr	r3, [sp, #28]
	uxth	r0, r3
	ldr	r2, .L147
	ldr	r3, [sp, #32]
	mov	r1, #6720
	mul	r3, r1, r3
	add	r3, r3, r2
	add	r3, r3, #5792
	adds	r3, r3, #24
	mov	r2, r0	@ movhi
	strh	r2, [r3]	@ movhi
	.loc 2 2698 40
	ldr	r2, .L147
	ldr	r3, [sp, #32]
	mov	r1, #6720
	mul	r3, r1, r3
	add	r3, r3, r2
	add	r3, r3, #5792
	adds	r3, r3, #22
	ldrh	r3, [r3]
	mov	r2, r3
	.loc 2 2698 56
	ldr	r3, [sp]
	mul	r3, r3, r2
	.loc 2 2698 67
	add	r3, r3, #1000
	.loc 2 2698 15
	str	r3, [sp, #12]
	.loc 2 2699 29
	ldr	r3, .L147+4
	ldr	r3, [r3, #4]
	.loc 2 2699 16
	movs	r2, #100
	mul	r3, r2, r3
	str	r3, [sp, #8]
	.loc 2 2700 18
	ldr	r3, [sp, #4]
	.loc 2 2700 4
	ldr	r2, [sp, #12]
	cmp	r2, r3
	bls	.L142
	.loc 2 2700 54 discriminator 1
	ldr	r2, .L147
	ldr	r3, [sp, #32]
	mov	r1, #6720
	mul	r3, r1, r3
	add	r3, r3, r2
	ldrb	r3, [r3]	@ zero_extendqisi2
	.loc 2 2700 28 discriminator 1
	cmp	r3, #0
	bne	.L142
	.loc 2 2702 11
	ldr	r3, [sp, #12]
	str	r3, [sp, #4]
	.loc 2 2703 24
	ldr	r3, [sp, #4]
	ldr	r2, .L147+4
	str	r3, [r2, #20]
	.loc 2 2704 14
	ldr	r3, [sp, #4]
	.loc 2 2704 5
	ldr	r2, [sp, #8]
	cmp	r2, r3
	bcs	.L142
	.loc 2 2705 37
	ldr	r3, [sp, #4]
	add	r3, r3, #1000
	.loc 2 2705 43
	ldr	r2, .L147+8
	smull	r1, r2, r2, r3
	asrs	r2, r2, #5
	asrs	r3, r3, #31
	subs	r3, r2, r3
	mov	r2, r3
	.loc 2 2705 27
	ldr	r3, .L147+4
	str	r2, [r3, #4]
.L142:
	.loc 2 2708 48
	ldr	r0, [sp, #4]
	bl	__aeabi_i2d
.LVL35:
	mov	r2, r0
	mov	r3, r1
	vmov	d0, r2, r3
	bl	convertmicrosectodevicetimeu
	mov	r2, r0
	mov	r3, r1
	.loc 2 2708 46
	ldr	r0, .L147
	ldr	r1, [sp, #32]
	mov	r4, #6720
	mul	r1, r4, r1
	add	r1, r1, r0
	adds	r1, r1, #72
	strd	r2, [r1]
	.loc 2 2711 88
	ldr	r3, [sp, #4]
	lsrs	r2, r3, #31
	add	r3, r3, r2
	asrs	r3, r3, #1
	.loc 2 2711 91
	adds	r3, r3, #100
	.loc 2 2711 51
	mov	r0, r3
	bl	__aeabi_i2d
.LVL36:
	mov	r2, r0
	mov	r3, r1
	vmov	d0, r2, r3
	bl	convertmicrosectodevicetimeu
	mov	r2, r0
	mov	r3, r1
	.loc 2 2711 49
	ldr	r0, .L147
	ldr	r1, [sp, #32]
	mov	r4, #6720
	mul	r1, r4, r1
	add	r1, r1, r0
	adds	r1, r1, #80
	strd	r2, [r1]
	.loc 2 2714 50
	ldr	r3, .L147+4
	ldr	r3, [r3, #4]
	.loc 2 2714 37
	uxth	r0, r3
	ldr	r2, .L147
	ldr	r3, [sp, #32]
	mov	r1, #6720
	mul	r3, r1, r3
	add	r3, r3, r2
	add	r3, r3, #436
	mov	r2, r0	@ movhi
	strh	r2, [r3]	@ movhi
	.loc 2 2715 51
	ldr	r3, .L147+4
	ldr	r3, [r3, #4]
	mov	r0, r3
	.loc 2 2715 38
	ldr	r2, .L147
	ldr	r3, [sp, #32]
	mov	r1, #6720
	mul	r3, r1, r3
	add	r3, r3, r2
	adds	r3, r3, #64
	str	r0, [r3]
	.loc 2 2717 48
	ldr	r3, .L147+4
	ldrh	r0, [r3]
	.loc 2 2717 35
	ldr	r2, .L147
	ldr	r3, [sp, #32]
	mov	r1, #6720
	mul	r3, r1, r3
	add	r3, r3, r2
	add	r3, r3, #438
	mov	r2, r0	@ movhi
	strh	r2, [r3]	@ movhi
	.loc 2 2718 52
	ldr	r3, .L147+4
	ldrh	r2, [r3, #8]
	.loc 2 2718 73
	ldr	r3, .L147+4
	ldr	r3, [r3, #4]
	.loc 2 2718 39
	uxth	r3, r3
	smulbb	r3, r2, r3
	uxth	r0, r3
	ldr	r2, .L147
	ldr	r3, [sp, #32]
	mov	r1, #6720
	mul	r3, r1, r3
	add	r3, r3, r2
	add	r3, r3, #434
	mov	r2, r0	@ movhi
	strh	r2, [r3]	@ movhi
	.loc 2 2720 36
	ldr	r3, .L147+4
	ldrh	r3, [r3, #8]
	mov	r2, r3
	.loc 2 2720 57
	ldr	r3, .L147+4
	ldr	r3, [r3, #4]
	.loc 2 2720 45
	mul	r3, r3, r2
	.loc 2 2720 23
	ldr	r2, .L147+4
	str	r3, [r2, #12]
	.loc 2 2721 40
	ldr	r3, .L147+4
	ldrh	r3, [r3, #8]
	mov	r2, r3
	.loc 2 2721 61
	ldr	r3, .L147+4
	ldr	r3, [r3, #4]
	.loc 2 2721 49
	mul	r3, r3, r2
	.loc 2 2721 27
	ldr	r2, .L147+4
	str	r3, [r2, #16]
	.loc 2 2723 55
	ldr	r3, .L147+4
	ldr	r3, [r3, #16]
	mov	r0, r3
	.loc 2 2723 42
	ldr	r2, .L147
	ldr	r3, [sp, #32]
	mov	r1, #6720
	mul	r3, r1, r3
	add	r3, r3, r2
	adds	r3, r3, #60
	str	r0, [r3]
	.loc 2 2725 1
	nop
	add	sp, sp, #52
.LCFI20:
	@ sp needed
	pop	{r4, r5, pc}
.L148:
	.align	2
.L147:
	.word	instance_data
	.word	sfConfigTwr
	.word	1374389535
.LFE222:
	.size	instancesetreplydelay, .-instancesetreplydelay
	.section	.text.instancesetaddresses,"ax",%progbits
	.align	1
	.global	instancesetaddresses
	.syntax unified
	.thumb
	.thumb_func
	.fpu fpv4-sp-d16
	.type	instancesetaddresses, %function
instancesetaddresses:
.LFB223:
	.loc 2 2733 1
	@ args = 0, pretend = 0, frame = 16
	@ frame_needed = 0, uses_anonymous_args = 0
	@ link register save eliminated.
	sub	sp, sp, #16
.LCFI21:
	mov	r3, r0
	strh	r3, [sp, #6]	@ movhi
	.loc 2 2734 9
	movs	r3, #0
	str	r3, [sp, #12]
	.loc 2 2736 47
	ldr	r2, .L150
	ldr	r3, [sp, #12]
	mov	r1, #6720
	mul	r3, r1, r3
	add	r3, r3, r2
	adds	r3, r3, #46
	ldrh	r2, [sp, #6]	@ movhi
	strh	r2, [r3]	@ movhi
	.loc 2 2737 1
	nop
	add	sp, sp, #16
.LCFI22:
	@ sp needed
	bx	lr
.L151:
	.align	2
.L150:
	.word	instance_data
.LFE223:
	.size	instancesetaddresses, .-instancesetaddresses
	.section	.debug_frame,"",%progbits
.Lframe0:
	.4byte	.LECIE0-.LSCIE0
.LSCIE0:
	.4byte	0xffffffff
	.byte	0x3
	.ascii	"\000"
	.uleb128 0x1
	.sleb128 -4
	.uleb128 0xe
	.byte	0xc
	.uleb128 0xd
	.uleb128 0
	.align	2
.LECIE0:
.LSFDE0:
	.4byte	.LEFDE0-.LASFDE0
.LASFDE0:
	.4byte	.Lframe0
	.4byte	.LFB131
	.4byte	.LFE131-.LFB131
	.byte	0x4
	.4byte	.LCFI0-.LFB131
	.byte	0xe
	.uleb128 0x10
	.byte	0x4
	.4byte	.LCFI1-.LCFI0
	.byte	0xe
	.uleb128 0
	.align	2
.LEFDE0:
.LSFDE2:
	.4byte	.LEFDE2-.LASFDE2
.LASFDE2:
	.4byte	.Lframe0
	.4byte	.LFB132
	.4byte	.LFE132-.LFB132
	.byte	0x4
	.4byte	.LCFI2-.LFB132
	.byte	0xe
	.uleb128 0x4
	.byte	0x8e
	.uleb128 0x1
	.byte	0x4
	.4byte	.LCFI3-.LCFI2
	.byte	0xe
	.uleb128 0x10
	.byte	0x4
	.4byte	.LCFI4-.LCFI3
	.byte	0xe
	.uleb128 0x4
	.align	2
.LEFDE2:
.LSFDE4:
	.4byte	.LEFDE4-.LASFDE4
.LASFDE4:
	.4byte	.Lframe0
	.4byte	.LFB217
	.4byte	.LFE217-.LFB217
	.byte	0x4
	.4byte	.LCFI5-.LFB217
	.byte	0xe
	.uleb128 0x8
	.byte	0x4
	.4byte	.LCFI6-.LCFI5
	.byte	0xe
	.uleb128 0
	.align	2
.LEFDE4:
.LSFDE6:
	.4byte	.LEFDE6-.LASFDE6
.LASFDE6:
	.4byte	.Lframe0
	.4byte	.LFB218
	.4byte	.LFE218-.LFB218
	.byte	0x4
	.4byte	.LCFI7-.LFB218
	.byte	0xe
	.uleb128 0x4
	.byte	0x8e
	.uleb128 0x1
	.byte	0x4
	.4byte	.LCFI8-.LCFI7
	.byte	0xe
	.uleb128 0x18
	.byte	0x4
	.4byte	.LCFI9-.LCFI8
	.byte	0xe
	.uleb128 0x4
	.align	2
.LEFDE6:
.LSFDE8:
	.4byte	.LEFDE8-.LASFDE8
.LASFDE8:
	.4byte	.Lframe0
	.4byte	.LFB219
	.4byte	.LFE219-.LFB219
	.byte	0x4
	.4byte	.LCFI10-.LFB219
	.byte	0xe
	.uleb128 0x4
	.byte	0x8e
	.uleb128 0x1
	.byte	0x4
	.4byte	.LCFI11-.LCFI10
	.byte	0xe
	.uleb128 0x28
	.byte	0x4
	.4byte	.LCFI12-.LCFI11
	.byte	0xe
	.uleb128 0x4
	.align	2
.LEFDE8:
.LSFDE10:
	.4byte	.LEFDE10-.LASFDE10
.LASFDE10:
	.4byte	.Lframe0
	.4byte	.LFB220
	.4byte	.LFE220-.LFB220
	.byte	0x4
	.4byte	.LCFI13-.LFB220
	.byte	0xe
	.uleb128 0x24
	.byte	0x84
	.uleb128 0x9
	.byte	0x85
	.uleb128 0x8
	.byte	0x86
	.uleb128 0x7
	.byte	0x87
	.uleb128 0x6
	.byte	0x88
	.uleb128 0x5
	.byte	0x89
	.uleb128 0x4
	.byte	0x8a
	.uleb128 0x3
	.byte	0x8b
	.uleb128 0x2
	.byte	0x8e
	.uleb128 0x1
	.byte	0x4
	.4byte	.LCFI14-.LCFI13
	.byte	0xe
	.uleb128 0x150
	.byte	0x4
	.4byte	.LCFI15-.LCFI14
	.byte	0xe
	.uleb128 0x24
	.align	2
.LEFDE10:
.LSFDE12:
	.4byte	.LEFDE12-.LASFDE12
.LASFDE12:
	.4byte	.Lframe0
	.4byte	.LFB221
	.4byte	.LFE221-.LFB221
	.byte	0x4
	.4byte	.LCFI16-.LFB221
	.byte	0xe
	.uleb128 0x8
	.byte	0x4
	.4byte	.LCFI17-.LCFI16
	.byte	0xe
	.uleb128 0
	.align	2
.LEFDE12:
.LSFDE14:
	.4byte	.LEFDE14-.LASFDE14
.LASFDE14:
	.4byte	.Lframe0
	.4byte	.LFB222
	.4byte	.LFE222-.LFB222
	.byte	0x4
	.4byte	.LCFI18-.LFB222
	.byte	0xe
	.uleb128 0xc
	.byte	0x84
	.uleb128 0x3
	.byte	0x85
	.uleb128 0x2
	.byte	0x8e
	.uleb128 0x1
	.byte	0x4
	.4byte	.LCFI19-.LCFI18
	.byte	0xe
	.uleb128 0x40
	.byte	0x4
	.4byte	.LCFI20-.LCFI19
	.byte	0xe
	.uleb128 0xc
	.align	2
.LEFDE14:
.LSFDE16:
	.4byte	.LEFDE16-.LASFDE16
.LASFDE16:
	.4byte	.Lframe0
	.4byte	.LFB223
	.4byte	.LFE223-.LFB223
	.byte	0x4
	.4byte	.LCFI21-.LFB223
	.byte	0xe
	.uleb128 0x10
	.byte	0x4
	.4byte	.LCFI22-.LCFI21
	.byte	0xe
	.uleb128 0
	.align	2
.LEFDE16:
	.text
.Letext0:
	.file 3 "/media/erwin/Data/workspace/git/dwm1001-examples/App2_nrf/instance.h"
	.file 4 "../../deca_driver/deca_device_api.h"
	.file 5 "../../deca_driver/deca_types.h"
	.file 6 "../../deca_driver/port/port_platform.h"
	.file 7 "/usr/share/segger_embedded_studio_for_arm_4.52a/include/stdint.h"